GAS LISTING /tmp/cc23nfB3.s 			page 1


   1              		.file	"quex_scan.cpp"
   9              	.Ltext0:
  10              	.globl _ZN4quex26quex_scan_PROGRAM_on_entryEPNS_9quex_scanEPKNS_18quex_scan_Mode_tagE
  12              	_ZN4quex26quex_scan_PROGRAM_on_entryEPNS_9quex_scanEPKNS_18quex_scan_Mode_tagE:
  13              	.LFB1308:
  14              		.file 1 "out/quex_scan.cpp"
   1:out/quex_scan.cpp **** #include "out/quex_scan"
   2:out/quex_scan.cpp **** #include <quex/code_base/analyzer/C-adaptions.h>
   3:out/quex_scan.cpp **** QUEX_NAMESPACE_MAIN_OPEN
   4:out/quex_scan.cpp **** /* Global */QUEX_NAME(Mode)  QUEX_NAME(PROGRAM);
   5:out/quex_scan.cpp **** #ifndef __QUEX_INDICATOR_DUMPED_TOKEN_ID_DEFINED
   6:out/quex_scan.cpp ****     static QUEX_TYPE_TOKEN_ID    QUEX_NAME_TOKEN(DumpedTokenIdObject);
   7:out/quex_scan.cpp **** #endif
   8:out/quex_scan.cpp **** #define self  (*(QUEX_TYPE_DERIVED_ANALYZER*)me)
   9:out/quex_scan.cpp **** #define __self_result_token_id    QUEX_NAME_TOKEN(DumpedTokenIdObject)
  10:out/quex_scan.cpp **** 
  11:out/quex_scan.cpp **** void
  12:out/quex_scan.cpp **** QUEX_NAME(PROGRAM_on_entry)(QUEX_TYPE_ANALYZER* me, const QUEX_NAME(Mode)* FromMode) {
  15              		.loc 1 12 0
  16              		.cfi_startproc
  17              		.cfi_personality 0x0,__gxx_personality_v0
  18              	.LVL0:
  19 0000 55       		pushl	%ebp
  20              	.LCFI0:
  21              		.cfi_def_cfa_offset 8
  22 0001 89E5     		movl	%esp, %ebp
  23              		.cfi_offset 5, -8
  24              	.LCFI1:
  25              		.cfi_def_cfa_register 5
  26 0003 83EC08   		subl	$8, %esp
  13:out/quex_scan.cpp ****     (void)me;
  14:out/quex_scan.cpp ****     (void)FromMode;
  15:out/quex_scan.cpp **** #   ifdef QUEX_OPTION_RUNTIME_MODE_TRANSITION_CHECK
  16:out/quex_scan.cpp ****     QUEX_NAME(PROGRAM).has_entry_from(FromMode);
  27              		.loc 1 16 0
  28 0006 8B450C   		movl	12(%ebp), %eax
  29 0009 894508   		movl	%eax, 8(%ebp)
  30 000c A11C0000 		movl	_ZN4quex17quex_scan_PROGRAME+28, %eax
  30      00
  17:out/quex_scan.cpp **** #   endif
  18:out/quex_scan.cpp **** 
  19:out/quex_scan.cpp **** }
  31              		.loc 1 19 0
  32 0011 C9       		leave
  16:out/quex_scan.cpp ****     QUEX_NAME(PROGRAM).has_entry_from(FromMode);
  33              		.loc 1 16 0
  34              		.cfi_escape 0x2e,0x4
  35 0012 FFE0     		jmp	*%eax
  36              		.cfi_endproc
  37              	.LFE1308:
  39              	.globl _ZN4quex25quex_scan_PROGRAM_on_exitEPNS_9quex_scanEPKNS_18quex_scan_Mode_tagE
  41              	_ZN4quex25quex_scan_PROGRAM_on_exitEPNS_9quex_scanEPKNS_18quex_scan_Mode_tagE:
  42              	.LFB1309:
  20:out/quex_scan.cpp **** 
  21:out/quex_scan.cpp **** void
  22:out/quex_scan.cpp **** QUEX_NAME(PROGRAM_on_exit)(QUEX_TYPE_ANALYZER* me, const QUEX_NAME(Mode)* ToMode)  {
  43              		.loc 1 22 0
GAS LISTING /tmp/cc23nfB3.s 			page 2


  44              		.cfi_startproc
  45              		.cfi_personality 0x0,__gxx_personality_v0
  46              	.LVL1:
  47 0014 55       		pushl	%ebp
  48              	.LCFI2:
  49              		.cfi_def_cfa_offset 8
  50 0015 89E5     		movl	%esp, %ebp
  51              		.cfi_offset 5, -8
  52              	.LCFI3:
  53              		.cfi_def_cfa_register 5
  54 0017 83EC08   		subl	$8, %esp
  23:out/quex_scan.cpp ****     (void)me;
  24:out/quex_scan.cpp ****     (void)ToMode;
  25:out/quex_scan.cpp **** #   ifdef QUEX_OPTION_RUNTIME_MODE_TRANSITION_CHECK
  26:out/quex_scan.cpp ****     QUEX_NAME(PROGRAM).has_exit_to(ToMode);
  55              		.loc 1 26 0
  56 001a 8B450C   		movl	12(%ebp), %eax
  57 001d 894508   		movl	%eax, 8(%ebp)
  58 0020 A1200000 		movl	_ZN4quex17quex_scan_PROGRAME+32, %eax
  58      00
  27:out/quex_scan.cpp **** #   endif
  28:out/quex_scan.cpp **** 
  29:out/quex_scan.cpp **** }
  59              		.loc 1 29 0
  60 0025 C9       		leave
  26:out/quex_scan.cpp ****     QUEX_NAME(PROGRAM).has_exit_to(ToMode);
  61              		.loc 1 26 0
  62              		.cfi_escape 0x2e,0x4
  63 0026 FFE0     		jmp	*%eax
  64              		.cfi_endproc
  65              	.LFE1309:
  67              	.globl _ZN4quex26quex_scan_PROGRAM_has_baseEPKNS_18quex_scan_Mode_tagE
  69              	_ZN4quex26quex_scan_PROGRAM_has_baseEPKNS_18quex_scan_Mode_tagE:
  70              	.LFB1310:
  30:out/quex_scan.cpp **** 
  31:out/quex_scan.cpp **** #if defined(QUEX_OPTION_INDENTATION_TRIGGER) 
  32:out/quex_scan.cpp **** void
  33:out/quex_scan.cpp **** QUEX_NAME(PROGRAM_on_indentation)(QUEX_TYPE_ANALYZER*    me, 
  34:out/quex_scan.cpp ****                                         QUEX_TYPE_INDENTATION  Indentation, 
  35:out/quex_scan.cpp ****                                         QUEX_TYPE_CHARACTER*   Begin) {
  36:out/quex_scan.cpp ****     (void)me;
  37:out/quex_scan.cpp ****     (void)Indentation;
  38:out/quex_scan.cpp ****     (void)Begin;
  39:out/quex_scan.cpp **** #   if defined(QUEX_OPTION_TOKEN_POLICY_SINGLE)
  40:out/quex_scan.cpp ****     return __self_result_token_id;
  41:out/quex_scan.cpp **** #   else
  42:out/quex_scan.cpp ****     return;
  43:out/quex_scan.cpp **** #   endif
  44:out/quex_scan.cpp **** }
  45:out/quex_scan.cpp **** #endif
  46:out/quex_scan.cpp **** 
  47:out/quex_scan.cpp **** #ifdef QUEX_OPTION_RUNTIME_MODE_TRANSITION_CHECK
  48:out/quex_scan.cpp **** bool
  49:out/quex_scan.cpp **** QUEX_NAME(PROGRAM_has_base)(const QUEX_NAME(Mode)* Mode) {
  71              		.loc 1 49 0
  72              		.cfi_startproc
  73              		.cfi_personality 0x0,__gxx_personality_v0
GAS LISTING /tmp/cc23nfB3.s 			page 3


  74              	.LVL2:
  75 0028 55       		pushl	%ebp
  76              	.LCFI4:
  77              		.cfi_def_cfa_offset 8
  50:out/quex_scan.cpp ****     (void)Mode;
  51:out/quex_scan.cpp ****     return false;
  52:out/quex_scan.cpp **** }
  78              		.loc 1 52 0
  79 0029 31C0     		xorl	%eax, %eax
  49:out/quex_scan.cpp **** QUEX_NAME(PROGRAM_has_base)(const QUEX_NAME(Mode)* Mode) {
  80              		.loc 1 49 0
  81 002b 89E5     		movl	%esp, %ebp
  82              		.cfi_offset 5, -8
  83              	.LCFI5:
  84              		.cfi_def_cfa_register 5
  85              		.loc 1 52 0
  86 002d 5D       		popl	%ebp
  87 002e C3       		ret
  88              		.cfi_endproc
  89              	.LFE1310:
  91              	.globl _ZN4quex32quex_scan_PROGRAM_has_entry_fromEPKNS_18quex_scan_Mode_tagE
  93              	_ZN4quex32quex_scan_PROGRAM_has_entry_fromEPKNS_18quex_scan_Mode_tagE:
  94              	.LFB1311:
  53:out/quex_scan.cpp **** bool
  54:out/quex_scan.cpp **** QUEX_NAME(PROGRAM_has_entry_from)(const QUEX_NAME(Mode)* Mode) {
  95              		.loc 1 54 0
  96              		.cfi_startproc
  97              		.cfi_personality 0x0,__gxx_personality_v0
  98              	.LVL3:
  99 002f 55       		pushl	%ebp
 100              	.LCFI6:
 101              		.cfi_def_cfa_offset 8
  55:out/quex_scan.cpp ****     (void)Mode;
  56:out/quex_scan.cpp ****     return true; /* default */
  57:out/quex_scan.cpp **** }
 102              		.loc 1 57 0
 103 0030 B001     		movb	$1, %al
  54:out/quex_scan.cpp **** QUEX_NAME(PROGRAM_has_entry_from)(const QUEX_NAME(Mode)* Mode) {
 104              		.loc 1 54 0
 105 0032 89E5     		movl	%esp, %ebp
 106              		.cfi_offset 5, -8
 107              	.LCFI7:
 108              		.cfi_def_cfa_register 5
 109              		.loc 1 57 0
 110 0034 5D       		popl	%ebp
 111 0035 C3       		ret
 112              		.cfi_endproc
 113              	.LFE1311:
 115              	.globl _ZN4quex29quex_scan_PROGRAM_has_exit_toEPKNS_18quex_scan_Mode_tagE
 117              	_ZN4quex29quex_scan_PROGRAM_has_exit_toEPKNS_18quex_scan_Mode_tagE:
 118              	.LFB1312:
  58:out/quex_scan.cpp **** bool
  59:out/quex_scan.cpp **** QUEX_NAME(PROGRAM_has_exit_to)(const QUEX_NAME(Mode)* Mode) {
 119              		.loc 1 59 0
 120              		.cfi_startproc
 121              		.cfi_personality 0x0,__gxx_personality_v0
 122              	.LVL4:
GAS LISTING /tmp/cc23nfB3.s 			page 4


 123 0036 55       		pushl	%ebp
 124              	.LCFI8:
 125              		.cfi_def_cfa_offset 8
  60:out/quex_scan.cpp ****     (void)Mode;
  61:out/quex_scan.cpp ****     return true; /* default */
  62:out/quex_scan.cpp **** }
 126              		.loc 1 62 0
 127 0037 B001     		movb	$1, %al
  59:out/quex_scan.cpp **** QUEX_NAME(PROGRAM_has_exit_to)(const QUEX_NAME(Mode)* Mode) {
 128              		.loc 1 59 0
 129 0039 89E5     		movl	%esp, %ebp
 130              		.cfi_offset 5, -8
 131              	.LCFI9:
 132              		.cfi_def_cfa_register 5
 133              		.loc 1 62 0
 134 003b 5D       		popl	%ebp
 135 003c C3       		ret
 136              		.cfi_endproc
 137              	.LFE1312:
 139              		.section	.text._ZN4quex25quex_scan_Buffer_destructEPNS_16quex_scan_BufferE,"axG",@progbits,_ZN4que
 140              		.weak	_ZN4quex25quex_scan_Buffer_destructEPNS_16quex_scan_BufferE
 142              	_ZN4quex25quex_scan_Buffer_destructEPNS_16quex_scan_BufferE:
 143              	.LFB1178:
 144              		.file 2 "/home/fschaef/prj/quex/trunk/quex/code_base/buffer/Buffer.i"
   1:/home/fschaef/prj/quex/trunk/quex/code_base/buffer/Buffer.i **** /* -*- C++ -*- vim:set syntax=cpp: */
   2:/home/fschaef/prj/quex/trunk/quex/code_base/buffer/Buffer.i **** #ifndef __QUEX_INCLUDE_GUARD__BUFFER__BUFFER_I
   3:/home/fschaef/prj/quex/trunk/quex/code_base/buffer/Buffer.i **** #define __QUEX_INCLUDE_GUARD__BUFFER__BUFFER_I
   4:/home/fschaef/prj/quex/trunk/quex/code_base/buffer/Buffer.i **** 
   5:/home/fschaef/prj/quex/trunk/quex/code_base/buffer/Buffer.i **** #include <quex/code_base/analyzer/configuration/validation>
   6:/home/fschaef/prj/quex/trunk/quex/code_base/buffer/Buffer.i **** #include <quex/code_base/asserts>
   7:/home/fschaef/prj/quex/trunk/quex/code_base/buffer/Buffer.i **** #include <quex/code_base/buffer/asserts>
   8:/home/fschaef/prj/quex/trunk/quex/code_base/buffer/Buffer.i **** #include <quex/code_base/definitions>
   9:/home/fschaef/prj/quex/trunk/quex/code_base/buffer/Buffer.i **** #include <quex/code_base/buffer/Buffer>
  10:/home/fschaef/prj/quex/trunk/quex/code_base/buffer/Buffer.i **** #include <quex/code_base/buffer/BufferFiller>
  11:/home/fschaef/prj/quex/trunk/quex/code_base/buffer/Buffer.i **** #include <quex/code_base/buffer/Buffer_debug.i>
  12:/home/fschaef/prj/quex/trunk/quex/code_base/buffer/Buffer.i **** #include <quex/code_base/MemoryManager>
  13:/home/fschaef/prj/quex/trunk/quex/code_base/buffer/Buffer.i **** 
  14:/home/fschaef/prj/quex/trunk/quex/code_base/buffer/Buffer.i **** #include <quex/code_base/temporary_macros_on>
  15:/home/fschaef/prj/quex/trunk/quex/code_base/buffer/Buffer.i **** 
  16:/home/fschaef/prj/quex/trunk/quex/code_base/buffer/Buffer.i **** QUEX_NAMESPACE_MAIN_OPEN
  17:/home/fschaef/prj/quex/trunk/quex/code_base/buffer/Buffer.i **** 
  18:/home/fschaef/prj/quex/trunk/quex/code_base/buffer/Buffer.i ****     QUEX_INLINE void  QUEX_NAME(Buffer_init)(QUEX_NAME(Buffer)*  me, 
  19:/home/fschaef/prj/quex/trunk/quex/code_base/buffer/Buffer.i ****                                              bool                ByteOrderReversionF); 
  20:/home/fschaef/prj/quex/trunk/quex/code_base/buffer/Buffer.i ****     QUEX_INLINE void  QUEX_NAME(Buffer_init_analyzis)(QUEX_NAME(Buffer)*  me, 
  21:/home/fschaef/prj/quex/trunk/quex/code_base/buffer/Buffer.i ****                                                       bool                ByteOrderReversionF);
  22:/home/fschaef/prj/quex/trunk/quex/code_base/buffer/Buffer.i ****     QUEX_INLINE void 
  23:/home/fschaef/prj/quex/trunk/quex/code_base/buffer/Buffer.i ****     QUEX_NAME(BufferMemory_construct)(QUEX_NAME(BufferMemory)*  me, 
  24:/home/fschaef/prj/quex/trunk/quex/code_base/buffer/Buffer.i ****                                       QUEX_TYPE_CHARACTER*      Memory, 
  25:/home/fschaef/prj/quex/trunk/quex/code_base/buffer/Buffer.i ****                                       const size_t              Size,
  26:/home/fschaef/prj/quex/trunk/quex/code_base/buffer/Buffer.i ****                                       QUEX_TYPE_CHARACTER*      EndOfFileP);
  27:/home/fschaef/prj/quex/trunk/quex/code_base/buffer/Buffer.i ****     QUEX_INLINE void 
  28:/home/fschaef/prj/quex/trunk/quex/code_base/buffer/Buffer.i ****     QUEX_NAME(BufferMemory_init)(QUEX_NAME(BufferMemory)*  me, 
  29:/home/fschaef/prj/quex/trunk/quex/code_base/buffer/Buffer.i ****                                  QUEX_TYPE_CHARACTER*      Memory, 
  30:/home/fschaef/prj/quex/trunk/quex/code_base/buffer/Buffer.i ****                                  const size_t              Size,
  31:/home/fschaef/prj/quex/trunk/quex/code_base/buffer/Buffer.i ****                                  QUEX_TYPE_CHARACTER*      EndOfFileP,
  32:/home/fschaef/prj/quex/trunk/quex/code_base/buffer/Buffer.i ****                                  bool                      ExternalOwnerF);
  33:/home/fschaef/prj/quex/trunk/quex/code_base/buffer/Buffer.i ****     QUEX_INLINE void  QUEX_NAME(BufferMemory_destruct)(QUEX_NAME(BufferMemory)* me);
GAS LISTING /tmp/cc23nfB3.s 			page 5


  34:/home/fschaef/prj/quex/trunk/quex/code_base/buffer/Buffer.i **** 
  35:/home/fschaef/prj/quex/trunk/quex/code_base/buffer/Buffer.i ****     TEMPLATE_IN(InputHandleT) void
  36:/home/fschaef/prj/quex/trunk/quex/code_base/buffer/Buffer.i ****     QUEX_NAME(Buffer_construct)(QUEX_NAME(Buffer)*    me, 
  37:/home/fschaef/prj/quex/trunk/quex/code_base/buffer/Buffer.i ****                                 InputHandleT*         input_handle,
  38:/home/fschaef/prj/quex/trunk/quex/code_base/buffer/Buffer.i ****                                 QUEX_TYPE_CHARACTER*  InputMemory,
  39:/home/fschaef/prj/quex/trunk/quex/code_base/buffer/Buffer.i ****                                 const size_t          MemorySize,
  40:/home/fschaef/prj/quex/trunk/quex/code_base/buffer/Buffer.i ****                                 QUEX_TYPE_CHARACTER*  EndOfFileP,
  41:/home/fschaef/prj/quex/trunk/quex/code_base/buffer/Buffer.i ****                                 const char*           CharacterEncodingName, 
  42:/home/fschaef/prj/quex/trunk/quex/code_base/buffer/Buffer.i ****                                 const size_t          TranslationBufferMemorySize,
  43:/home/fschaef/prj/quex/trunk/quex/code_base/buffer/Buffer.i ****                                 bool                  ByteOrderReversionF)
  44:/home/fschaef/prj/quex/trunk/quex/code_base/buffer/Buffer.i ****         /* The input can either come from MEMORY or from a STREAM. 
  45:/home/fschaef/prj/quex/trunk/quex/code_base/buffer/Buffer.i ****          *
  46:/home/fschaef/prj/quex/trunk/quex/code_base/buffer/Buffer.i ****          * input_handle == 0x0 => input via memory
  47:/home/fschaef/prj/quex/trunk/quex/code_base/buffer/Buffer.i ****          *              != 0x0 => input via stream (spec. by input_handle)
  48:/home/fschaef/prj/quex/trunk/quex/code_base/buffer/Buffer.i ****          *
  49:/home/fschaef/prj/quex/trunk/quex/code_base/buffer/Buffer.i ****          * InputMemory != 0x0  => run directly on specified memory.
  50:/home/fschaef/prj/quex/trunk/quex/code_base/buffer/Buffer.i ****          *             == 0x0  => get memory from memory manager.                              */ 
  51:/home/fschaef/prj/quex/trunk/quex/code_base/buffer/Buffer.i ****     {
  52:/home/fschaef/prj/quex/trunk/quex/code_base/buffer/Buffer.i **** #       ifdef QUEX_OPTION_ASSERTS
  53:/home/fschaef/prj/quex/trunk/quex/code_base/buffer/Buffer.i ****         if( input_handle != 0x0 ) __quex_assert(InputMemory == 0x0 );
  54:/home/fschaef/prj/quex/trunk/quex/code_base/buffer/Buffer.i ****         if( InputMemory  != 0x0 ) { 
  55:/home/fschaef/prj/quex/trunk/quex/code_base/buffer/Buffer.i ****             __quex_assert(input_handle == 0x0 );
  56:/home/fschaef/prj/quex/trunk/quex/code_base/buffer/Buffer.i ****             /* If the input memory is provided, the content **must** be properly set up.       */
  57:/home/fschaef/prj/quex/trunk/quex/code_base/buffer/Buffer.i ****             QUEX_BUFFER_ASSERT_NO_BUFFER_LIMIT_CODE(InputMemory + 1, EndOfFileP);
  58:/home/fschaef/prj/quex/trunk/quex/code_base/buffer/Buffer.i ****         }
  59:/home/fschaef/prj/quex/trunk/quex/code_base/buffer/Buffer.i **** #       endif
  60:/home/fschaef/prj/quex/trunk/quex/code_base/buffer/Buffer.i **** 
  61:/home/fschaef/prj/quex/trunk/quex/code_base/buffer/Buffer.i ****         /* No allocation of the base 'me->_memory' since it is a plain member of 'Buffer'.
  62:/home/fschaef/prj/quex/trunk/quex/code_base/buffer/Buffer.i ****          * InputMemory == 0x0 => interact with memory manager to get memory.                   */
  63:/home/fschaef/prj/quex/trunk/quex/code_base/buffer/Buffer.i ****         QUEX_NAME(BufferMemory_construct)(&(me->_memory), 
  64:/home/fschaef/prj/quex/trunk/quex/code_base/buffer/Buffer.i ****                                           InputMemory, MemorySize, EndOfFileP);      
  65:/home/fschaef/prj/quex/trunk/quex/code_base/buffer/Buffer.i **** 
  66:/home/fschaef/prj/quex/trunk/quex/code_base/buffer/Buffer.i ****         me->on_buffer_content_change = 0x0;
  67:/home/fschaef/prj/quex/trunk/quex/code_base/buffer/Buffer.i **** 
  68:/home/fschaef/prj/quex/trunk/quex/code_base/buffer/Buffer.i ****         me->filler = QUEX_NAME(BufferFiller_new)(input_handle, CharacterEncodingName, TranslationBu
  69:/home/fschaef/prj/quex/trunk/quex/code_base/buffer/Buffer.i ****         /* Until now, nothing is loaded into the buffer. */
  70:/home/fschaef/prj/quex/trunk/quex/code_base/buffer/Buffer.i **** 
  71:/home/fschaef/prj/quex/trunk/quex/code_base/buffer/Buffer.i ****         QUEX_NAME(Buffer_init)(me, ByteOrderReversionF);
  72:/home/fschaef/prj/quex/trunk/quex/code_base/buffer/Buffer.i **** 
  73:/home/fschaef/prj/quex/trunk/quex/code_base/buffer/Buffer.i ****         QUEX_BUFFER_ASSERT_CONSISTENCY(me);
  74:/home/fschaef/prj/quex/trunk/quex/code_base/buffer/Buffer.i ****         QUEX_BUFFER_ASSERT_CONTENT_CONSISTENCY(me);
  75:/home/fschaef/prj/quex/trunk/quex/code_base/buffer/Buffer.i ****         __quex_assert(me->_input_p == me->_memory._front + 1);
  76:/home/fschaef/prj/quex/trunk/quex/code_base/buffer/Buffer.i ****     }
  77:/home/fschaef/prj/quex/trunk/quex/code_base/buffer/Buffer.i **** 
  78:/home/fschaef/prj/quex/trunk/quex/code_base/buffer/Buffer.i ****     TEMPLATE_IN(InputHandleT) void
  79:/home/fschaef/prj/quex/trunk/quex/code_base/buffer/Buffer.i ****     QUEX_NAME(Buffer_reset)(QUEX_NAME(Buffer)*  me, 
  80:/home/fschaef/prj/quex/trunk/quex/code_base/buffer/Buffer.i ****                             InputHandleT*       input_handle, 
  81:/home/fschaef/prj/quex/trunk/quex/code_base/buffer/Buffer.i ****                             const char*         CharacterEncodingName, 
  82:/home/fschaef/prj/quex/trunk/quex/code_base/buffer/Buffer.i ****                             const size_t        TranslationBufferMemorySize)
  83:/home/fschaef/prj/quex/trunk/quex/code_base/buffer/Buffer.i ****     /* NOTE:     me->_content_character_index_begin == 0 
  84:/home/fschaef/prj/quex/trunk/quex/code_base/buffer/Buffer.i ****      *       and me->_content_character_index_end   == 0 
  85:/home/fschaef/prj/quex/trunk/quex/code_base/buffer/Buffer.i ****      *       => buffer is filled the very first time.                                    
  86:/home/fschaef/prj/quex/trunk/quex/code_base/buffer/Buffer.i ****      * NOTE: The reset of the buffer filler happens by 'delete' and 'new'. This is
  87:/home/fschaef/prj/quex/trunk/quex/code_base/buffer/Buffer.i ****      *       done in order to keep the template decoupled from the rest. Only the
  88:/home/fschaef/prj/quex/trunk/quex/code_base/buffer/Buffer.i ****      *       'new' functions (allocator + constructor) know about the template. The
  89:/home/fschaef/prj/quex/trunk/quex/code_base/buffer/Buffer.i ****      *       'delete_self' function pointer is set to a template that knows how to
  90:/home/fschaef/prj/quex/trunk/quex/code_base/buffer/Buffer.i ****      *       deallocate the object.
GAS LISTING /tmp/cc23nfB3.s 			page 6


  91:/home/fschaef/prj/quex/trunk/quex/code_base/buffer/Buffer.i ****      */
  92:/home/fschaef/prj/quex/trunk/quex/code_base/buffer/Buffer.i ****     {
  93:/home/fschaef/prj/quex/trunk/quex/code_base/buffer/Buffer.i ****         /* Setup the buffer filler for new analysis */
  94:/home/fschaef/prj/quex/trunk/quex/code_base/buffer/Buffer.i ****         if( me->filler != 0x0 ) { 
  95:/home/fschaef/prj/quex/trunk/quex/code_base/buffer/Buffer.i ****             /* If the same input handle is used, as before, than the following command
  96:/home/fschaef/prj/quex/trunk/quex/code_base/buffer/Buffer.i ****              * ensures, that we start at the same position.                            */
  97:/home/fschaef/prj/quex/trunk/quex/code_base/buffer/Buffer.i ****             me->filler->seek_character_index(me->filler, 0);
  98:/home/fschaef/prj/quex/trunk/quex/code_base/buffer/Buffer.i ****             me->filler->delete_self(me->filler);
  99:/home/fschaef/prj/quex/trunk/quex/code_base/buffer/Buffer.i ****         }
 100:/home/fschaef/prj/quex/trunk/quex/code_base/buffer/Buffer.i ****         me->filler = QUEX_NAME(BufferFiller_new)(input_handle, CharacterEncodingName, TranslationBu
 101:/home/fschaef/prj/quex/trunk/quex/code_base/buffer/Buffer.i **** 
 102:/home/fschaef/prj/quex/trunk/quex/code_base/buffer/Buffer.i ****         QUEX_NAME(Buffer_init_analyzis)(me, me->_byte_order_reversion_active_f);
 103:/home/fschaef/prj/quex/trunk/quex/code_base/buffer/Buffer.i **** 
 104:/home/fschaef/prj/quex/trunk/quex/code_base/buffer/Buffer.i ****         if( me->filler != 0x0 ) {
 105:/home/fschaef/prj/quex/trunk/quex/code_base/buffer/Buffer.i ****             /* We only have to reset the input stream, if we are not at position zero    */
 106:/home/fschaef/prj/quex/trunk/quex/code_base/buffer/Buffer.i ****             QUEX_NAME(BufferFiller_initial_load)(me);   
 107:/home/fschaef/prj/quex/trunk/quex/code_base/buffer/Buffer.i ****         } else {
 108:/home/fschaef/prj/quex/trunk/quex/code_base/buffer/Buffer.i ****             me->_content_character_index_begin = 0; 
 109:/home/fschaef/prj/quex/trunk/quex/code_base/buffer/Buffer.i ****             me->_content_character_index_end   = 0;
 110:/home/fschaef/prj/quex/trunk/quex/code_base/buffer/Buffer.i ****         }
 111:/home/fschaef/prj/quex/trunk/quex/code_base/buffer/Buffer.i **** 
 112:/home/fschaef/prj/quex/trunk/quex/code_base/buffer/Buffer.i ****         QUEX_BUFFER_ASSERT_CONSISTENCY(me);
 113:/home/fschaef/prj/quex/trunk/quex/code_base/buffer/Buffer.i ****         QUEX_BUFFER_ASSERT_CONTENT_CONSISTENCY(me);
 114:/home/fschaef/prj/quex/trunk/quex/code_base/buffer/Buffer.i ****         __quex_assert(me->_input_p == me->_memory._front + 1);
 115:/home/fschaef/prj/quex/trunk/quex/code_base/buffer/Buffer.i ****     }
 116:/home/fschaef/prj/quex/trunk/quex/code_base/buffer/Buffer.i **** 
 117:/home/fschaef/prj/quex/trunk/quex/code_base/buffer/Buffer.i ****     QUEX_INLINE void
 118:/home/fschaef/prj/quex/trunk/quex/code_base/buffer/Buffer.i ****     QUEX_NAME(Buffer_init)(QUEX_NAME(Buffer)*  me, bool ByteOrderReversionF)
 119:/home/fschaef/prj/quex/trunk/quex/code_base/buffer/Buffer.i ****     {
 120:/home/fschaef/prj/quex/trunk/quex/code_base/buffer/Buffer.i ****         /* By setting begin and end to zero, we indicate to the loader that
 121:/home/fschaef/prj/quex/trunk/quex/code_base/buffer/Buffer.i ****          * this is the very first load procedure.                           */
 122:/home/fschaef/prj/quex/trunk/quex/code_base/buffer/Buffer.i ****         me->_content_character_index_end   = 0;
 123:/home/fschaef/prj/quex/trunk/quex/code_base/buffer/Buffer.i ****         me->_content_character_index_begin = 0; 
 124:/home/fschaef/prj/quex/trunk/quex/code_base/buffer/Buffer.i **** 
 125:/home/fschaef/prj/quex/trunk/quex/code_base/buffer/Buffer.i ****         QUEX_NAME(Buffer_init_analyzis)(me, ByteOrderReversionF);
 126:/home/fschaef/prj/quex/trunk/quex/code_base/buffer/Buffer.i **** 
 127:/home/fschaef/prj/quex/trunk/quex/code_base/buffer/Buffer.i ****         if( me->filler != 0x0 ) {
 128:/home/fschaef/prj/quex/trunk/quex/code_base/buffer/Buffer.i ****             /* We only have to reset the input stream, if we are not at position zero    */
 129:/home/fschaef/prj/quex/trunk/quex/code_base/buffer/Buffer.i ****             QUEX_NAME(BufferFiller_initial_load)(me);   
 130:/home/fschaef/prj/quex/trunk/quex/code_base/buffer/Buffer.i ****         } 
 131:/home/fschaef/prj/quex/trunk/quex/code_base/buffer/Buffer.i **** 
 132:/home/fschaef/prj/quex/trunk/quex/code_base/buffer/Buffer.i ****         QUEX_BUFFER_ASSERT_CONSISTENCY(me);
 133:/home/fschaef/prj/quex/trunk/quex/code_base/buffer/Buffer.i ****         QUEX_BUFFER_ASSERT_CONTENT_CONSISTENCY(me);
 134:/home/fschaef/prj/quex/trunk/quex/code_base/buffer/Buffer.i ****     }
 135:/home/fschaef/prj/quex/trunk/quex/code_base/buffer/Buffer.i **** 
 136:/home/fschaef/prj/quex/trunk/quex/code_base/buffer/Buffer.i ****     QUEX_INLINE void
 137:/home/fschaef/prj/quex/trunk/quex/code_base/buffer/Buffer.i ****     QUEX_NAME(Buffer_init_analyzis)(QUEX_NAME(Buffer)*  me, bool ByteOrderReversionF)
 138:/home/fschaef/prj/quex/trunk/quex/code_base/buffer/Buffer.i ****     {
 139:/home/fschaef/prj/quex/trunk/quex/code_base/buffer/Buffer.i ****         me->_byte_order_reversion_active_f = ByteOrderReversionF;
 140:/home/fschaef/prj/quex/trunk/quex/code_base/buffer/Buffer.i **** 
 141:/home/fschaef/prj/quex/trunk/quex/code_base/buffer/Buffer.i ****         /* Init is a special kind of reset, where some things might not be reset. */
 142:/home/fschaef/prj/quex/trunk/quex/code_base/buffer/Buffer.i ****         me->_input_p        = me->_memory._front + 1;  /* First State does not increment */
 143:/home/fschaef/prj/quex/trunk/quex/code_base/buffer/Buffer.i ****         me->_lexeme_start_p = me->_memory._front + 1;  /* Thus, set it on your own.      */
 144:/home/fschaef/prj/quex/trunk/quex/code_base/buffer/Buffer.i ****         /* NOTE: The terminating zero is stored in the first character **after** the  
 145:/home/fschaef/prj/quex/trunk/quex/code_base/buffer/Buffer.i ****          *       lexeme (matching character sequence). The begin of line pre-condition  
 146:/home/fschaef/prj/quex/trunk/quex/code_base/buffer/Buffer.i ****          *       is concerned with the last character in the lexeme, which is the one  
 147:/home/fschaef/prj/quex/trunk/quex/code_base/buffer/Buffer.i ****          *       before the 'char_covered_by_terminating_zero'.                          */
GAS LISTING /tmp/cc23nfB3.s 			page 7


 148:/home/fschaef/prj/quex/trunk/quex/code_base/buffer/Buffer.i ****         me->_character_at_lexeme_start     = '\0';  /* (0 means: no character covered)   */
 149:/home/fschaef/prj/quex/trunk/quex/code_base/buffer/Buffer.i **** #       ifdef  __QUEX_OPTION_SUPPORT_BEGIN_OF_LINE_PRE_CONDITION
 150:/home/fschaef/prj/quex/trunk/quex/code_base/buffer/Buffer.i ****         me->_character_before_lexeme_start = '\n';  /* --> begin of line                 */
 151:/home/fschaef/prj/quex/trunk/quex/code_base/buffer/Buffer.i **** #       endif
 152:/home/fschaef/prj/quex/trunk/quex/code_base/buffer/Buffer.i ****     }
 153:/home/fschaef/prj/quex/trunk/quex/code_base/buffer/Buffer.i **** 
 154:/home/fschaef/prj/quex/trunk/quex/code_base/buffer/Buffer.i ****     QUEX_INLINE void
 155:/home/fschaef/prj/quex/trunk/quex/code_base/buffer/Buffer.i ****     QUEX_NAME(Buffer_destruct)(QUEX_NAME(Buffer)* me)
 156:/home/fschaef/prj/quex/trunk/quex/code_base/buffer/Buffer.i ****     {
 145              		.loc 2 156 0
 146              		.cfi_startproc
 147              		.cfi_personality 0x0,__gxx_personality_v0
 148              	.LVL5:
 149 0000 55       		pushl	%ebp
 150              	.LCFI10:
 151              		.cfi_def_cfa_offset 8
 152 0001 89E5     		movl	%esp, %ebp
 153              		.cfi_offset 5, -8
 154              	.LCFI11:
 155              		.cfi_def_cfa_register 5
 156 0003 53       		pushl	%ebx
 157 0004 83EC04   		subl	$4, %esp
 158              		.loc 2 156 0
 159 0007 8B5D08   		movl	8(%ebp), %ebx
 160              		.cfi_offset 3, -12
 157:/home/fschaef/prj/quex/trunk/quex/code_base/buffer/Buffer.i ****         if( me->filler != 0x0 ) { 
 161              		.loc 2 157 0
 162 000a 8B4328   		movl	40(%ebx), %eax
 163 000d 85C0     		testl	%eax, %eax
 164 000f 7411     		je	.L12
 165              	.LVL6:
 158:/home/fschaef/prj/quex/trunk/quex/code_base/buffer/Buffer.i ****             me->filler->delete_self(me->filler); 
 166              		.loc 2 158 0
 167 0011 83EC0C   		subl	$12, %esp
 168 0014 50       		pushl	%eax
 169              		.cfi_escape 0x2e,0x10
 170 0015 FF5010   		call	*16(%eax)
 159:/home/fschaef/prj/quex/trunk/quex/code_base/buffer/Buffer.i ****             me->filler = 0x0;
 171              		.loc 2 159 0
 172 0018 83C410   		addl	$16, %esp
 173 001b C7432800 		movl	$0, 40(%ebx)
 173      000000
 174              	.L12:
 175              	.LBB340:
 176              	.LBB341:
 160:/home/fschaef/prj/quex/trunk/quex/code_base/buffer/Buffer.i ****         }
 161:/home/fschaef/prj/quex/trunk/quex/code_base/buffer/Buffer.i **** 
 162:/home/fschaef/prj/quex/trunk/quex/code_base/buffer/Buffer.i ****         QUEX_NAME(BufferMemory_destruct)(&me->_memory);
 163:/home/fschaef/prj/quex/trunk/quex/code_base/buffer/Buffer.i ****     }
 164:/home/fschaef/prj/quex/trunk/quex/code_base/buffer/Buffer.i **** 
 165:/home/fschaef/prj/quex/trunk/quex/code_base/buffer/Buffer.i ****     QUEX_INLINE void
 166:/home/fschaef/prj/quex/trunk/quex/code_base/buffer/Buffer.i ****     QUEX_NAME(Buffer_input_p_add_offset)(QUEX_NAME(Buffer)* buffer, const size_t Offset)
 167:/home/fschaef/prj/quex/trunk/quex/code_base/buffer/Buffer.i ****     { 
 168:/home/fschaef/prj/quex/trunk/quex/code_base/buffer/Buffer.i ****         QUEX_BUFFER_ASSERT_CONSISTENCY_LIGHT(buffer);
 169:/home/fschaef/prj/quex/trunk/quex/code_base/buffer/Buffer.i ****         buffer->_input_p += Offset; 
 170:/home/fschaef/prj/quex/trunk/quex/code_base/buffer/Buffer.i ****         QUEX_BUFFER_ASSERT_CONSISTENCY_LIGHT(buffer);
 171:/home/fschaef/prj/quex/trunk/quex/code_base/buffer/Buffer.i ****     }
GAS LISTING /tmp/cc23nfB3.s 			page 8


 172:/home/fschaef/prj/quex/trunk/quex/code_base/buffer/Buffer.i **** 
 173:/home/fschaef/prj/quex/trunk/quex/code_base/buffer/Buffer.i ****     QUEX_INLINE void
 174:/home/fschaef/prj/quex/trunk/quex/code_base/buffer/Buffer.i ****     QUEX_NAME(Buffer_input_p_increment)(QUEX_NAME(Buffer)* buffer)
 175:/home/fschaef/prj/quex/trunk/quex/code_base/buffer/Buffer.i ****     { 
 176:/home/fschaef/prj/quex/trunk/quex/code_base/buffer/Buffer.i ****         ++(buffer->_input_p); 
 177:/home/fschaef/prj/quex/trunk/quex/code_base/buffer/Buffer.i ****     }
 178:/home/fschaef/prj/quex/trunk/quex/code_base/buffer/Buffer.i **** 
 179:/home/fschaef/prj/quex/trunk/quex/code_base/buffer/Buffer.i ****     QUEX_INLINE void
 180:/home/fschaef/prj/quex/trunk/quex/code_base/buffer/Buffer.i ****     QUEX_NAME(Buffer_input_p_decrement)(QUEX_NAME(Buffer)* buffer)
 181:/home/fschaef/prj/quex/trunk/quex/code_base/buffer/Buffer.i ****     { 
 182:/home/fschaef/prj/quex/trunk/quex/code_base/buffer/Buffer.i ****         --(buffer->_input_p); 
 183:/home/fschaef/prj/quex/trunk/quex/code_base/buffer/Buffer.i ****     }
 184:/home/fschaef/prj/quex/trunk/quex/code_base/buffer/Buffer.i **** 
 185:/home/fschaef/prj/quex/trunk/quex/code_base/buffer/Buffer.i ****     QUEX_INLINE void
 186:/home/fschaef/prj/quex/trunk/quex/code_base/buffer/Buffer.i ****     QUEX_NAME(Buffer_mark_lexeme_start)(QUEX_NAME(Buffer)* buffer)
 187:/home/fschaef/prj/quex/trunk/quex/code_base/buffer/Buffer.i ****     { 
 188:/home/fschaef/prj/quex/trunk/quex/code_base/buffer/Buffer.i ****         buffer->_lexeme_start_p = buffer->_input_p; 
 189:/home/fschaef/prj/quex/trunk/quex/code_base/buffer/Buffer.i ****     }
 190:/home/fschaef/prj/quex/trunk/quex/code_base/buffer/Buffer.i **** 
 191:/home/fschaef/prj/quex/trunk/quex/code_base/buffer/Buffer.i ****     QUEX_INLINE void
 192:/home/fschaef/prj/quex/trunk/quex/code_base/buffer/Buffer.i ****     QUEX_NAME(Buffer_seek_lexeme_start)(QUEX_NAME(Buffer)* buffer)
 193:/home/fschaef/prj/quex/trunk/quex/code_base/buffer/Buffer.i ****     { 
 194:/home/fschaef/prj/quex/trunk/quex/code_base/buffer/Buffer.i ****         buffer->_input_p = buffer->_lexeme_start_p;
 195:/home/fschaef/prj/quex/trunk/quex/code_base/buffer/Buffer.i ****     }
 196:/home/fschaef/prj/quex/trunk/quex/code_base/buffer/Buffer.i **** 
 197:/home/fschaef/prj/quex/trunk/quex/code_base/buffer/Buffer.i ****     QUEX_INLINE QUEX_TYPE_CHARACTER_POSITION
 198:/home/fschaef/prj/quex/trunk/quex/code_base/buffer/Buffer.i ****     QUEX_NAME(Buffer_tell_memory_adr)(QUEX_NAME(Buffer)* buffer)
 199:/home/fschaef/prj/quex/trunk/quex/code_base/buffer/Buffer.i ****     {
 200:/home/fschaef/prj/quex/trunk/quex/code_base/buffer/Buffer.i ****         /* NOTE: We cannot check for general consistency here, because this function 
 201:/home/fschaef/prj/quex/trunk/quex/code_base/buffer/Buffer.i ****          *       may be used by the range skippers, and they write possibly something on
 202:/home/fschaef/prj/quex/trunk/quex/code_base/buffer/Buffer.i ****          *       the end of file pointer, that is different from the buffer limit code.
 203:/home/fschaef/prj/quex/trunk/quex/code_base/buffer/Buffer.i ****          * NOT: QUEX_BUFFER_ASSERT_CONSISTENCY(buffer); */
 204:/home/fschaef/prj/quex/trunk/quex/code_base/buffer/Buffer.i **** #       if defined (QUEX_OPTION_ASSERTS) && ! defined(__QUEX_OPTION_PLAIN_C)
 205:/home/fschaef/prj/quex/trunk/quex/code_base/buffer/Buffer.i ****         return QUEX_TYPE_CHARACTER_POSITION(buffer->_input_p, buffer->_content_character_index_begi
 206:/home/fschaef/prj/quex/trunk/quex/code_base/buffer/Buffer.i **** #       else
 207:/home/fschaef/prj/quex/trunk/quex/code_base/buffer/Buffer.i ****         return (QUEX_TYPE_CHARACTER_POSITION)(buffer->_input_p);
 208:/home/fschaef/prj/quex/trunk/quex/code_base/buffer/Buffer.i **** #       endif
 209:/home/fschaef/prj/quex/trunk/quex/code_base/buffer/Buffer.i ****     }
 210:/home/fschaef/prj/quex/trunk/quex/code_base/buffer/Buffer.i **** 
 211:/home/fschaef/prj/quex/trunk/quex/code_base/buffer/Buffer.i ****     QUEX_INLINE void
 212:/home/fschaef/prj/quex/trunk/quex/code_base/buffer/Buffer.i ****     QUEX_NAME(Buffer_seek_memory_adr)(QUEX_NAME(Buffer)* buffer, QUEX_TYPE_CHARACTER_POSITION Posit
 213:/home/fschaef/prj/quex/trunk/quex/code_base/buffer/Buffer.i ****     {
 214:/home/fschaef/prj/quex/trunk/quex/code_base/buffer/Buffer.i **** #       if      defined (QUEX_OPTION_ASSERTS) \
 215:/home/fschaef/prj/quex/trunk/quex/code_base/buffer/Buffer.i ****            && ! defined(__QUEX_OPTION_PLAIN_C)
 216:/home/fschaef/prj/quex/trunk/quex/code_base/buffer/Buffer.i ****         /* Check whether the memory_position is relative to the current start position   
 217:/home/fschaef/prj/quex/trunk/quex/code_base/buffer/Buffer.i ****          * of the stream. That means, that the tell_adr() command was called on the  
 218:/home/fschaef/prj/quex/trunk/quex/code_base/buffer/Buffer.i ****          * same buffer setting or the positions have been adapted using the += operator.*/
 219:/home/fschaef/prj/quex/trunk/quex/code_base/buffer/Buffer.i ****         __quex_assert(Position.buffer_start_position == (size_t)buffer->_content_character_index_be
 220:/home/fschaef/prj/quex/trunk/quex/code_base/buffer/Buffer.i ****         buffer->_input_p = Position.address;
 221:/home/fschaef/prj/quex/trunk/quex/code_base/buffer/Buffer.i **** #       else
 222:/home/fschaef/prj/quex/trunk/quex/code_base/buffer/Buffer.i ****         buffer->_input_p = Position;
 223:/home/fschaef/prj/quex/trunk/quex/code_base/buffer/Buffer.i **** #       endif
 224:/home/fschaef/prj/quex/trunk/quex/code_base/buffer/Buffer.i ****         QUEX_BUFFER_ASSERT_CONSISTENCY(buffer);
 225:/home/fschaef/prj/quex/trunk/quex/code_base/buffer/Buffer.i ****     }
 226:/home/fschaef/prj/quex/trunk/quex/code_base/buffer/Buffer.i **** 
 227:/home/fschaef/prj/quex/trunk/quex/code_base/buffer/Buffer.i ****     QUEX_INLINE QUEX_TYPE_CHARACTER
 228:/home/fschaef/prj/quex/trunk/quex/code_base/buffer/Buffer.i ****     QUEX_NAME(Buffer_input_get)(QUEX_NAME(Buffer)* me)
GAS LISTING /tmp/cc23nfB3.s 			page 9


 229:/home/fschaef/prj/quex/trunk/quex/code_base/buffer/Buffer.i ****     {
 230:/home/fschaef/prj/quex/trunk/quex/code_base/buffer/Buffer.i ****         QUEX_BUFFER_ASSERT_CONSISTENCY_LIGHT(me);
 231:/home/fschaef/prj/quex/trunk/quex/code_base/buffer/Buffer.i **** #       ifdef QUEX_OPTION_ASSERTS
 232:/home/fschaef/prj/quex/trunk/quex/code_base/buffer/Buffer.i ****         if( *me->_input_p == QUEX_SETTING_BUFFER_LIMIT_CODE )
 233:/home/fschaef/prj/quex/trunk/quex/code_base/buffer/Buffer.i ****             __quex_assert(   me->_input_p == me->_memory._end_of_file_p 
 234:/home/fschaef/prj/quex/trunk/quex/code_base/buffer/Buffer.i ****                           || me->_input_p == me->_memory._back 
 235:/home/fschaef/prj/quex/trunk/quex/code_base/buffer/Buffer.i ****                           || me->_input_p == me->_memory._front);
 236:/home/fschaef/prj/quex/trunk/quex/code_base/buffer/Buffer.i **** #       endif
 237:/home/fschaef/prj/quex/trunk/quex/code_base/buffer/Buffer.i ****         /* std::fprintf(stderr, "## front = %08X; back = %08X; input_p = %08X;\n", (int)(me->_memor
 238:/home/fschaef/prj/quex/trunk/quex/code_base/buffer/Buffer.i ****         return *(me->_input_p); 
 239:/home/fschaef/prj/quex/trunk/quex/code_base/buffer/Buffer.i ****     }
 240:/home/fschaef/prj/quex/trunk/quex/code_base/buffer/Buffer.i **** 
 241:/home/fschaef/prj/quex/trunk/quex/code_base/buffer/Buffer.i ****     QUEX_INLINE QUEX_TYPE_CHARACTER
 242:/home/fschaef/prj/quex/trunk/quex/code_base/buffer/Buffer.i ****     QUEX_NAME(Buffer_input_get_offset)(QUEX_NAME(Buffer)* me, const size_t Offset)
 243:/home/fschaef/prj/quex/trunk/quex/code_base/buffer/Buffer.i ****     {
 244:/home/fschaef/prj/quex/trunk/quex/code_base/buffer/Buffer.i ****         QUEX_BUFFER_ASSERT_CONSISTENCY_LIGHT(me);
 245:/home/fschaef/prj/quex/trunk/quex/code_base/buffer/Buffer.i ****         __quex_assert( me->_input_p + Offset > me->_memory._front );
 246:/home/fschaef/prj/quex/trunk/quex/code_base/buffer/Buffer.i ****         __quex_assert( me->_input_p + Offset <= me->_memory._back );
 247:/home/fschaef/prj/quex/trunk/quex/code_base/buffer/Buffer.i ****         return *(me->_input_p + Offset); 
 248:/home/fschaef/prj/quex/trunk/quex/code_base/buffer/Buffer.i ****     }
 249:/home/fschaef/prj/quex/trunk/quex/code_base/buffer/Buffer.i **** 
 250:/home/fschaef/prj/quex/trunk/quex/code_base/buffer/Buffer.i ****     QUEX_INLINE void
 251:/home/fschaef/prj/quex/trunk/quex/code_base/buffer/Buffer.i ****     QUEX_NAME(Buffer_set_terminating_zero_for_lexeme)(QUEX_NAME(Buffer)* me)
 252:/home/fschaef/prj/quex/trunk/quex/code_base/buffer/Buffer.i ****     { 
 253:/home/fschaef/prj/quex/trunk/quex/code_base/buffer/Buffer.i ****         me->_character_at_lexeme_start = *(me->_input_p); 
 254:/home/fschaef/prj/quex/trunk/quex/code_base/buffer/Buffer.i ****         *(me->_input_p) = '\0';
 255:/home/fschaef/prj/quex/trunk/quex/code_base/buffer/Buffer.i ****     }
 256:/home/fschaef/prj/quex/trunk/quex/code_base/buffer/Buffer.i **** 
 257:/home/fschaef/prj/quex/trunk/quex/code_base/buffer/Buffer.i ****     QUEX_INLINE void
 258:/home/fschaef/prj/quex/trunk/quex/code_base/buffer/Buffer.i ****     QUEX_NAME(Buffer_undo_terminating_zero_for_lexeme)(QUEX_NAME(Buffer)* me)
 259:/home/fschaef/prj/quex/trunk/quex/code_base/buffer/Buffer.i ****     {
 260:/home/fschaef/prj/quex/trunk/quex/code_base/buffer/Buffer.i ****         /* only need to reset, in case that the terminating zero was set*/
 261:/home/fschaef/prj/quex/trunk/quex/code_base/buffer/Buffer.i ****         if( me->_character_at_lexeme_start != (QUEX_TYPE_CHARACTER)'\0' ) {  
 262:/home/fschaef/prj/quex/trunk/quex/code_base/buffer/Buffer.i ****             *(me->_input_p) = me->_character_at_lexeme_start;                  
 263:/home/fschaef/prj/quex/trunk/quex/code_base/buffer/Buffer.i ****             me->_character_at_lexeme_start = (QUEX_TYPE_CHARACTER)'\0';     
 264:/home/fschaef/prj/quex/trunk/quex/code_base/buffer/Buffer.i ****         }
 265:/home/fschaef/prj/quex/trunk/quex/code_base/buffer/Buffer.i ****     }
 266:/home/fschaef/prj/quex/trunk/quex/code_base/buffer/Buffer.i **** 
 267:/home/fschaef/prj/quex/trunk/quex/code_base/buffer/Buffer.i ****     QUEX_INLINE QUEX_TYPE_CHARACTER*
 268:/home/fschaef/prj/quex/trunk/quex/code_base/buffer/Buffer.i ****     QUEX_NAME(Buffer_content_front)(QUEX_NAME(Buffer)* me)
 269:/home/fschaef/prj/quex/trunk/quex/code_base/buffer/Buffer.i ****     {
 270:/home/fschaef/prj/quex/trunk/quex/code_base/buffer/Buffer.i ****         return me->_memory._front + 1;
 271:/home/fschaef/prj/quex/trunk/quex/code_base/buffer/Buffer.i ****     }
 272:/home/fschaef/prj/quex/trunk/quex/code_base/buffer/Buffer.i **** 
 273:/home/fschaef/prj/quex/trunk/quex/code_base/buffer/Buffer.i ****     QUEX_INLINE QUEX_TYPE_CHARACTER*
 274:/home/fschaef/prj/quex/trunk/quex/code_base/buffer/Buffer.i ****     QUEX_NAME(Buffer_content_back)(QUEX_NAME(Buffer)* me)
 275:/home/fschaef/prj/quex/trunk/quex/code_base/buffer/Buffer.i ****     {
 276:/home/fschaef/prj/quex/trunk/quex/code_base/buffer/Buffer.i ****         return me->_memory._back - 1;
 277:/home/fschaef/prj/quex/trunk/quex/code_base/buffer/Buffer.i ****     }
 278:/home/fschaef/prj/quex/trunk/quex/code_base/buffer/Buffer.i **** 
 279:/home/fschaef/prj/quex/trunk/quex/code_base/buffer/Buffer.i ****     QUEX_INLINE size_t
 280:/home/fschaef/prj/quex/trunk/quex/code_base/buffer/Buffer.i ****     QUEX_NAME(Buffer_content_size)(QUEX_NAME(Buffer)* me)
 281:/home/fschaef/prj/quex/trunk/quex/code_base/buffer/Buffer.i ****     {
 282:/home/fschaef/prj/quex/trunk/quex/code_base/buffer/Buffer.i ****         return QUEX_NAME(BufferMemory_size)(&(me->_memory)) - 2;
 283:/home/fschaef/prj/quex/trunk/quex/code_base/buffer/Buffer.i ****     }
 284:/home/fschaef/prj/quex/trunk/quex/code_base/buffer/Buffer.i **** 
 285:/home/fschaef/prj/quex/trunk/quex/code_base/buffer/Buffer.i ****     QUEX_INLINE QUEX_TYPE_CHARACTER*  
GAS LISTING /tmp/cc23nfB3.s 			page 10


 286:/home/fschaef/prj/quex/trunk/quex/code_base/buffer/Buffer.i ****     QUEX_NAME(Buffer_text_end)(QUEX_NAME(Buffer)* me)
 287:/home/fschaef/prj/quex/trunk/quex/code_base/buffer/Buffer.i ****     {
 288:/home/fschaef/prj/quex/trunk/quex/code_base/buffer/Buffer.i ****         /* Returns a pointer to the position after the last text content inside the buffer. */
 289:/home/fschaef/prj/quex/trunk/quex/code_base/buffer/Buffer.i ****         if( me->_memory._end_of_file_p != 0 ) return me->_memory._end_of_file_p;
 290:/home/fschaef/prj/quex/trunk/quex/code_base/buffer/Buffer.i ****         else                                  return me->_memory._back;   
 291:/home/fschaef/prj/quex/trunk/quex/code_base/buffer/Buffer.i ****     }
 292:/home/fschaef/prj/quex/trunk/quex/code_base/buffer/Buffer.i **** 
 293:/home/fschaef/prj/quex/trunk/quex/code_base/buffer/Buffer.i ****     QUEX_INLINE ptrdiff_t
 294:/home/fschaef/prj/quex/trunk/quex/code_base/buffer/Buffer.i ****     QUEX_NAME(Buffer_distance_input_to_text_end)(QUEX_NAME(Buffer)* me)
 295:/home/fschaef/prj/quex/trunk/quex/code_base/buffer/Buffer.i ****     {
 296:/home/fschaef/prj/quex/trunk/quex/code_base/buffer/Buffer.i ****         QUEX_BUFFER_ASSERT_CONSISTENCY_LIGHT(me);
 297:/home/fschaef/prj/quex/trunk/quex/code_base/buffer/Buffer.i ****         return QUEX_NAME(Buffer_text_end)(me) - me->_input_p;
 298:/home/fschaef/prj/quex/trunk/quex/code_base/buffer/Buffer.i ****     }
 299:/home/fschaef/prj/quex/trunk/quex/code_base/buffer/Buffer.i **** 
 300:/home/fschaef/prj/quex/trunk/quex/code_base/buffer/Buffer.i ****     QUEX_INLINE void
 301:/home/fschaef/prj/quex/trunk/quex/code_base/buffer/Buffer.i ****     QUEX_NAME(Buffer_end_of_file_set)(QUEX_NAME(Buffer)* me, QUEX_TYPE_CHARACTER* Position)
 302:/home/fschaef/prj/quex/trunk/quex/code_base/buffer/Buffer.i ****     {
 303:/home/fschaef/prj/quex/trunk/quex/code_base/buffer/Buffer.i ****         /* NOTE: The content starts at _front[1], since _front[0] contains 
 304:/home/fschaef/prj/quex/trunk/quex/code_base/buffer/Buffer.i ****          *       the buffer limit code. */
 305:/home/fschaef/prj/quex/trunk/quex/code_base/buffer/Buffer.i ****         me->_memory._end_of_file_p    = Position;
 306:/home/fschaef/prj/quex/trunk/quex/code_base/buffer/Buffer.i ****         *(me->_memory._end_of_file_p) = QUEX_SETTING_BUFFER_LIMIT_CODE;
 307:/home/fschaef/prj/quex/trunk/quex/code_base/buffer/Buffer.i **** 
 308:/home/fschaef/prj/quex/trunk/quex/code_base/buffer/Buffer.i ****         /* Not yet: QUEX_BUFFER_ASSERT_CONSISTENCY(me) -- pointers may still have to be adapted. */
 309:/home/fschaef/prj/quex/trunk/quex/code_base/buffer/Buffer.i ****     }
 310:/home/fschaef/prj/quex/trunk/quex/code_base/buffer/Buffer.i **** 
 311:/home/fschaef/prj/quex/trunk/quex/code_base/buffer/Buffer.i ****     QUEX_INLINE void
 312:/home/fschaef/prj/quex/trunk/quex/code_base/buffer/Buffer.i ****     QUEX_NAME(Buffer_end_of_file_unset)(QUEX_NAME(Buffer)* buffer)
 313:/home/fschaef/prj/quex/trunk/quex/code_base/buffer/Buffer.i ****     {
 314:/home/fschaef/prj/quex/trunk/quex/code_base/buffer/Buffer.i ****         /* If the end of file pointer is to be 'unset' me must assume that the storage as been
 315:/home/fschaef/prj/quex/trunk/quex/code_base/buffer/Buffer.i ****          * overidden with something useful. Avoid setting _memory._end_of_file_p = 0x0 while the 
 316:/home/fschaef/prj/quex/trunk/quex/code_base/buffer/Buffer.i ****          * position pointed to still contains the buffer limit code.                             */
 317:/home/fschaef/prj/quex/trunk/quex/code_base/buffer/Buffer.i ****         buffer->_memory._end_of_file_p = 0x0;
 318:/home/fschaef/prj/quex/trunk/quex/code_base/buffer/Buffer.i ****         /* Not yet: QUEX_BUFFER_ASSERT_CONSISTENCY(me) -- pointers may still have to be adapted. */
 319:/home/fschaef/prj/quex/trunk/quex/code_base/buffer/Buffer.i ****     }
 320:/home/fschaef/prj/quex/trunk/quex/code_base/buffer/Buffer.i **** 
 321:/home/fschaef/prj/quex/trunk/quex/code_base/buffer/Buffer.i ****     QUEX_INLINE bool 
 322:/home/fschaef/prj/quex/trunk/quex/code_base/buffer/Buffer.i ****     QUEX_NAME(Buffer_is_end_of_file)(QUEX_NAME(Buffer)* buffer)
 323:/home/fschaef/prj/quex/trunk/quex/code_base/buffer/Buffer.i ****     { 
 324:/home/fschaef/prj/quex/trunk/quex/code_base/buffer/Buffer.i ****         QUEX_BUFFER_ASSERT_CONSISTENCY(buffer);
 325:/home/fschaef/prj/quex/trunk/quex/code_base/buffer/Buffer.i ****         return buffer->_input_p == buffer->_memory._end_of_file_p;
 326:/home/fschaef/prj/quex/trunk/quex/code_base/buffer/Buffer.i ****     }
 327:/home/fschaef/prj/quex/trunk/quex/code_base/buffer/Buffer.i **** 
 328:/home/fschaef/prj/quex/trunk/quex/code_base/buffer/Buffer.i ****     QUEX_INLINE bool                  
 329:/home/fschaef/prj/quex/trunk/quex/code_base/buffer/Buffer.i ****     QUEX_NAME(Buffer_is_begin_of_file)(QUEX_NAME(Buffer)* buffer)
 330:/home/fschaef/prj/quex/trunk/quex/code_base/buffer/Buffer.i ****     { 
 331:/home/fschaef/prj/quex/trunk/quex/code_base/buffer/Buffer.i ****         QUEX_BUFFER_ASSERT_CONSISTENCY(buffer);
 332:/home/fschaef/prj/quex/trunk/quex/code_base/buffer/Buffer.i ****         if     ( buffer->_input_p != buffer->_memory._front )  return false;
 333:/home/fschaef/prj/quex/trunk/quex/code_base/buffer/Buffer.i ****         else if( buffer->_content_character_index_begin != 0 ) return false;
 334:/home/fschaef/prj/quex/trunk/quex/code_base/buffer/Buffer.i ****         return true;
 335:/home/fschaef/prj/quex/trunk/quex/code_base/buffer/Buffer.i ****     }
 336:/home/fschaef/prj/quex/trunk/quex/code_base/buffer/Buffer.i **** 
 337:/home/fschaef/prj/quex/trunk/quex/code_base/buffer/Buffer.i ****     QUEX_INLINE void  
 338:/home/fschaef/prj/quex/trunk/quex/code_base/buffer/Buffer.i ****     QUEX_NAME(Buffer_move_forward)(QUEX_NAME(Buffer)* me, const ptrdiff_t CharacterN)
 339:/home/fschaef/prj/quex/trunk/quex/code_base/buffer/Buffer.i ****     {
 340:/home/fschaef/prj/quex/trunk/quex/code_base/buffer/Buffer.i ****        QUEX_BUFFER_ASSERT_CONSISTENCY(me);
 341:/home/fschaef/prj/quex/trunk/quex/code_base/buffer/Buffer.i ****        /* Why: __quex_assert(QUEX_SETTING_BUFFER_MIN_FALLBACK_N >= 1); ? fschaef 08y11m1d> */
 342:/home/fschaef/prj/quex/trunk/quex/code_base/buffer/Buffer.i **** 
GAS LISTING /tmp/cc23nfB3.s 			page 11


 343:/home/fschaef/prj/quex/trunk/quex/code_base/buffer/Buffer.i ****        if( CharacterN < QUEX_NAME(Buffer_distance_input_to_text_end)(me) ) {
 344:/home/fschaef/prj/quex/trunk/quex/code_base/buffer/Buffer.i ****            /* _input_p + CharacterN < text_end, thus no reload necessary. */
 345:/home/fschaef/prj/quex/trunk/quex/code_base/buffer/Buffer.i ****            me->_input_p += CharacterN;
 346:/home/fschaef/prj/quex/trunk/quex/code_base/buffer/Buffer.i ****        }
 347:/home/fschaef/prj/quex/trunk/quex/code_base/buffer/Buffer.i ****        else {
 348:/home/fschaef/prj/quex/trunk/quex/code_base/buffer/Buffer.i ****            /* _input_p + CharacterN >= text_end, thus we need to reload. */
 349:/home/fschaef/prj/quex/trunk/quex/code_base/buffer/Buffer.i ****            if( me->filler == 0x0 || me->_memory._end_of_file_p != 0x0 ) {
 350:/home/fschaef/prj/quex/trunk/quex/code_base/buffer/Buffer.i ****                me->_input_p = QUEX_NAME(Buffer_text_end)(me);  /* No reload possible */
 351:/home/fschaef/prj/quex/trunk/quex/code_base/buffer/Buffer.i ****            } else {
 352:/home/fschaef/prj/quex/trunk/quex/code_base/buffer/Buffer.i ****                /* Reload until delta is reachable inside buffer. */
 353:/home/fschaef/prj/quex/trunk/quex/code_base/buffer/Buffer.i ****                ptrdiff_t delta    = CharacterN; 
 354:/home/fschaef/prj/quex/trunk/quex/code_base/buffer/Buffer.i ****                ptrdiff_t distance = QUEX_NAME(Buffer_distance_input_to_text_end)(me);
 355:/home/fschaef/prj/quex/trunk/quex/code_base/buffer/Buffer.i ****                do {
 356:/home/fschaef/prj/quex/trunk/quex/code_base/buffer/Buffer.i ****                    delta -= distance;
 357:/home/fschaef/prj/quex/trunk/quex/code_base/buffer/Buffer.i **** 
 358:/home/fschaef/prj/quex/trunk/quex/code_base/buffer/Buffer.i ****                    me->_input_p        = me->_memory._back; /* Prepare reload forward. */
 359:/home/fschaef/prj/quex/trunk/quex/code_base/buffer/Buffer.i ****                    me->_lexeme_start_p = me->_input_p;
 360:/home/fschaef/prj/quex/trunk/quex/code_base/buffer/Buffer.i ****                    if( QUEX_NAME(BufferFiller_load_forward)(me) == 0 ) {
 361:/home/fschaef/prj/quex/trunk/quex/code_base/buffer/Buffer.i ****                        me->_input_p = QUEX_NAME(Buffer_text_end)(me);  /* No reload possible */
 362:/home/fschaef/prj/quex/trunk/quex/code_base/buffer/Buffer.i ****                        break;
 363:/home/fschaef/prj/quex/trunk/quex/code_base/buffer/Buffer.i ****                    } 
 364:/home/fschaef/prj/quex/trunk/quex/code_base/buffer/Buffer.i ****                    /* After loading forward, we need to increment ... the way the game is to be pla
 365:/home/fschaef/prj/quex/trunk/quex/code_base/buffer/Buffer.i ****                    ++(me->_input_p);
 366:/home/fschaef/prj/quex/trunk/quex/code_base/buffer/Buffer.i ****                    distance = QUEX_NAME(Buffer_distance_input_to_text_end)(me);
 367:/home/fschaef/prj/quex/trunk/quex/code_base/buffer/Buffer.i **** 
 368:/home/fschaef/prj/quex/trunk/quex/code_base/buffer/Buffer.i ****                    if( delta < distance ) {
 369:/home/fschaef/prj/quex/trunk/quex/code_base/buffer/Buffer.i ****                        /* _input_p + delta < text_end, thus no further reload necessary. */
 370:/home/fschaef/prj/quex/trunk/quex/code_base/buffer/Buffer.i ****                        me->_input_p += delta;
 371:/home/fschaef/prj/quex/trunk/quex/code_base/buffer/Buffer.i ****                        break;
 372:/home/fschaef/prj/quex/trunk/quex/code_base/buffer/Buffer.i ****                    }
 373:/home/fschaef/prj/quex/trunk/quex/code_base/buffer/Buffer.i ****                } while( 1 + 1 == 2 );
 374:/home/fschaef/prj/quex/trunk/quex/code_base/buffer/Buffer.i ****            }
 375:/home/fschaef/prj/quex/trunk/quex/code_base/buffer/Buffer.i ****        }
 376:/home/fschaef/prj/quex/trunk/quex/code_base/buffer/Buffer.i ****        me->_lexeme_start_p            = me->_input_p;
 377:/home/fschaef/prj/quex/trunk/quex/code_base/buffer/Buffer.i ****        me->_character_at_lexeme_start = *(me->_lexeme_start_p);
 378:/home/fschaef/prj/quex/trunk/quex/code_base/buffer/Buffer.i **** #      ifdef __QUEX_OPTION_SUPPORT_BEGIN_OF_LINE_PRE_CONDITION
 379:/home/fschaef/prj/quex/trunk/quex/code_base/buffer/Buffer.i ****        me->_character_before_lexeme_start = *(me->_lexeme_start_p - 1);
 380:/home/fschaef/prj/quex/trunk/quex/code_base/buffer/Buffer.i **** #      endif
 381:/home/fschaef/prj/quex/trunk/quex/code_base/buffer/Buffer.i **** 
 382:/home/fschaef/prj/quex/trunk/quex/code_base/buffer/Buffer.i ****        QUEX_BUFFER_ASSERT_CONSISTENCY(me);
 383:/home/fschaef/prj/quex/trunk/quex/code_base/buffer/Buffer.i ****     }
 384:/home/fschaef/prj/quex/trunk/quex/code_base/buffer/Buffer.i ****     
 385:/home/fschaef/prj/quex/trunk/quex/code_base/buffer/Buffer.i ****     QUEX_INLINE void  
 386:/home/fschaef/prj/quex/trunk/quex/code_base/buffer/Buffer.i ****     QUEX_NAME(Buffer_move_backward)(QUEX_NAME(Buffer)* me, const ptrdiff_t CharacterN)
 387:/home/fschaef/prj/quex/trunk/quex/code_base/buffer/Buffer.i ****     {
 388:/home/fschaef/prj/quex/trunk/quex/code_base/buffer/Buffer.i ****        QUEX_BUFFER_ASSERT_CONSISTENCY(me);
 389:/home/fschaef/prj/quex/trunk/quex/code_base/buffer/Buffer.i **** 
 390:/home/fschaef/prj/quex/trunk/quex/code_base/buffer/Buffer.i ****        /* When going backward, anyway a non-zero width distance is left ahead. */
 391:/home/fschaef/prj/quex/trunk/quex/code_base/buffer/Buffer.i ****        if( CharacterN < (me->_input_p - QUEX_NAME(Buffer_content_front)(me)) ) {
 392:/home/fschaef/prj/quex/trunk/quex/code_base/buffer/Buffer.i ****            /* _input_p - CharacterN < content_front, thus no reload necessary. */
 393:/home/fschaef/prj/quex/trunk/quex/code_base/buffer/Buffer.i ****            me->_input_p -= CharacterN;
 394:/home/fschaef/prj/quex/trunk/quex/code_base/buffer/Buffer.i ****        }
 395:/home/fschaef/prj/quex/trunk/quex/code_base/buffer/Buffer.i ****        else {
 396:/home/fschaef/prj/quex/trunk/quex/code_base/buffer/Buffer.i ****            /* _input_p - CharacterN < _front + 1 >= text_end, thus we need to reload. */
 397:/home/fschaef/prj/quex/trunk/quex/code_base/buffer/Buffer.i ****            if( me->filler == 0x0 || me->_content_character_index_begin == 0 ) { 
 398:/home/fschaef/prj/quex/trunk/quex/code_base/buffer/Buffer.i ****                me->_input_p = QUEX_NAME(Buffer_content_front)(me);
 399:/home/fschaef/prj/quex/trunk/quex/code_base/buffer/Buffer.i ****            } else {
GAS LISTING /tmp/cc23nfB3.s 			page 12


 400:/home/fschaef/prj/quex/trunk/quex/code_base/buffer/Buffer.i ****                /* Reload until delta is reachable inside buffer. */
 401:/home/fschaef/prj/quex/trunk/quex/code_base/buffer/Buffer.i ****                ptrdiff_t delta    = (ptrdiff_t)CharacterN; 
 402:/home/fschaef/prj/quex/trunk/quex/code_base/buffer/Buffer.i ****                ptrdiff_t distance = (ptrdiff_t)(me->_input_p - QUEX_NAME(Buffer_content_front)(me))
 403:/home/fschaef/prj/quex/trunk/quex/code_base/buffer/Buffer.i ****                do {
 404:/home/fschaef/prj/quex/trunk/quex/code_base/buffer/Buffer.i ****                    delta -= distance;
 405:/home/fschaef/prj/quex/trunk/quex/code_base/buffer/Buffer.i **** 
 406:/home/fschaef/prj/quex/trunk/quex/code_base/buffer/Buffer.i ****                    me->_input_p        = me->_memory._front; /* Prepare reload backward. */
 407:/home/fschaef/prj/quex/trunk/quex/code_base/buffer/Buffer.i ****                    me->_lexeme_start_p = me->_input_p + 1;
 408:/home/fschaef/prj/quex/trunk/quex/code_base/buffer/Buffer.i ****                    if( QUEX_NAME(BufferFiller_load_backward)(me) == 0 ) {
 409:/home/fschaef/prj/quex/trunk/quex/code_base/buffer/Buffer.i ****                        me->_input_p = QUEX_NAME(Buffer_content_front)(me); /* No reload possible */
 410:/home/fschaef/prj/quex/trunk/quex/code_base/buffer/Buffer.i ****                        break;
 411:/home/fschaef/prj/quex/trunk/quex/code_base/buffer/Buffer.i ****                    } 
 412:/home/fschaef/prj/quex/trunk/quex/code_base/buffer/Buffer.i ****                    /* After loading backwards, we need **not** to increment ... the way the game is
 413:/home/fschaef/prj/quex/trunk/quex/code_base/buffer/Buffer.i ****                    distance = (ptrdiff_t)(me->_input_p - QUEX_NAME(Buffer_content_front)(me));
 414:/home/fschaef/prj/quex/trunk/quex/code_base/buffer/Buffer.i **** 
 415:/home/fschaef/prj/quex/trunk/quex/code_base/buffer/Buffer.i ****                    if( delta < distance ) {
 416:/home/fschaef/prj/quex/trunk/quex/code_base/buffer/Buffer.i ****                        /* _input_p + delta < text_end, thus no further reload necessary. */
 417:/home/fschaef/prj/quex/trunk/quex/code_base/buffer/Buffer.i ****                        me->_input_p -= delta;
 418:/home/fschaef/prj/quex/trunk/quex/code_base/buffer/Buffer.i ****                        break;
 419:/home/fschaef/prj/quex/trunk/quex/code_base/buffer/Buffer.i ****                    }
 420:/home/fschaef/prj/quex/trunk/quex/code_base/buffer/Buffer.i ****                } while( 1 + 1 == 2 );
 421:/home/fschaef/prj/quex/trunk/quex/code_base/buffer/Buffer.i ****            }
 422:/home/fschaef/prj/quex/trunk/quex/code_base/buffer/Buffer.i ****        }
 423:/home/fschaef/prj/quex/trunk/quex/code_base/buffer/Buffer.i ****        me->_lexeme_start_p = me->_input_p;
 424:/home/fschaef/prj/quex/trunk/quex/code_base/buffer/Buffer.i ****        me->_character_at_lexeme_start = *(me->_lexeme_start_p);
 425:/home/fschaef/prj/quex/trunk/quex/code_base/buffer/Buffer.i **** #      ifdef __QUEX_OPTION_SUPPORT_BEGIN_OF_LINE_PRE_CONDITION
 426:/home/fschaef/prj/quex/trunk/quex/code_base/buffer/Buffer.i ****        me->_character_before_lexeme_start = *(me->_lexeme_start_p - 1);
 427:/home/fschaef/prj/quex/trunk/quex/code_base/buffer/Buffer.i **** #      endif
 428:/home/fschaef/prj/quex/trunk/quex/code_base/buffer/Buffer.i **** 
 429:/home/fschaef/prj/quex/trunk/quex/code_base/buffer/Buffer.i ****        QUEX_BUFFER_ASSERT_CONSISTENCY(me);
 430:/home/fschaef/prj/quex/trunk/quex/code_base/buffer/Buffer.i ****     }
 431:/home/fschaef/prj/quex/trunk/quex/code_base/buffer/Buffer.i **** 
 432:/home/fschaef/prj/quex/trunk/quex/code_base/buffer/Buffer.i ****     QUEX_INLINE ptrdiff_t  
 433:/home/fschaef/prj/quex/trunk/quex/code_base/buffer/Buffer.i ****     QUEX_NAME(Buffer_tell)(QUEX_NAME(Buffer)* me)
 434:/home/fschaef/prj/quex/trunk/quex/code_base/buffer/Buffer.i ****     {
 435:/home/fschaef/prj/quex/trunk/quex/code_base/buffer/Buffer.i ****         /* This function returns the character index that corresponds to the 
 436:/home/fschaef/prj/quex/trunk/quex/code_base/buffer/Buffer.i ****          * current setting of the input pointer. Note, that the content starts
 437:/home/fschaef/prj/quex/trunk/quex/code_base/buffer/Buffer.i ****          * at one position after the memory (buffer limitting char at _front.).         
 438:/home/fschaef/prj/quex/trunk/quex/code_base/buffer/Buffer.i ****          */
 439:/home/fschaef/prj/quex/trunk/quex/code_base/buffer/Buffer.i ****         const ptrdiff_t DeltaToBufferBegin = me->_input_p - me->_memory._front - 1;
 440:/home/fschaef/prj/quex/trunk/quex/code_base/buffer/Buffer.i ****         /* Adding the current offset of the content of the buffer in the stream. 
 441:/home/fschaef/prj/quex/trunk/quex/code_base/buffer/Buffer.i ****          * If there is no filler, there is no stream, then there is also no offset. */
 442:/home/fschaef/prj/quex/trunk/quex/code_base/buffer/Buffer.i ****         if( me->filler == 0x0 ) 
 443:/home/fschaef/prj/quex/trunk/quex/code_base/buffer/Buffer.i ****             return DeltaToBufferBegin;
 444:/home/fschaef/prj/quex/trunk/quex/code_base/buffer/Buffer.i ****         else
 445:/home/fschaef/prj/quex/trunk/quex/code_base/buffer/Buffer.i ****             return DeltaToBufferBegin + me->_content_character_index_begin;
 446:/home/fschaef/prj/quex/trunk/quex/code_base/buffer/Buffer.i ****     }
 447:/home/fschaef/prj/quex/trunk/quex/code_base/buffer/Buffer.i **** 
 448:/home/fschaef/prj/quex/trunk/quex/code_base/buffer/Buffer.i ****     QUEX_INLINE void    
 449:/home/fschaef/prj/quex/trunk/quex/code_base/buffer/Buffer.i ****     QUEX_NAME(Buffer_seek)(QUEX_NAME(Buffer)* me, const ptrdiff_t CharacterIndex)
 450:/home/fschaef/prj/quex/trunk/quex/code_base/buffer/Buffer.i ****     {
 451:/home/fschaef/prj/quex/trunk/quex/code_base/buffer/Buffer.i ****         /* This function sets the _input_p according to a character index of the
 452:/home/fschaef/prj/quex/trunk/quex/code_base/buffer/Buffer.i ****          * input stream (if there is a stream). It is the inverse of 'tell()'.   */
 453:/home/fschaef/prj/quex/trunk/quex/code_base/buffer/Buffer.i ****         const ptrdiff_t CurrentCharacterIndex = QUEX_NAME(Buffer_tell)(me);
 454:/home/fschaef/prj/quex/trunk/quex/code_base/buffer/Buffer.i ****         if( CharacterIndex > CurrentCharacterIndex )
 455:/home/fschaef/prj/quex/trunk/quex/code_base/buffer/Buffer.i ****             QUEX_NAME(Buffer_move_forward)(me, CharacterIndex - CurrentCharacterIndex);
 456:/home/fschaef/prj/quex/trunk/quex/code_base/buffer/Buffer.i ****         else
GAS LISTING /tmp/cc23nfB3.s 			page 13


 457:/home/fschaef/prj/quex/trunk/quex/code_base/buffer/Buffer.i ****             QUEX_NAME(Buffer_move_backward)(me, CurrentCharacterIndex - CharacterIndex);
 458:/home/fschaef/prj/quex/trunk/quex/code_base/buffer/Buffer.i ****     }
 459:/home/fschaef/prj/quex/trunk/quex/code_base/buffer/Buffer.i **** 
 460:/home/fschaef/prj/quex/trunk/quex/code_base/buffer/Buffer.i ****     QUEX_INLINE void          
 461:/home/fschaef/prj/quex/trunk/quex/code_base/buffer/Buffer.i ****     QUEX_NAME(Buffer_move_away_passed_content)(QUEX_NAME(Buffer)* me)
 462:/home/fschaef/prj/quex/trunk/quex/code_base/buffer/Buffer.i ****     /* PURPOSE: Moves buffer content that has been passed by out of the buffer.
 463:/home/fschaef/prj/quex/trunk/quex/code_base/buffer/Buffer.i ****      *
 464:/home/fschaef/prj/quex/trunk/quex/code_base/buffer/Buffer.i ****      * Example:  
 465:/home/fschaef/prj/quex/trunk/quex/code_base/buffer/Buffer.i ****      *
 466:/home/fschaef/prj/quex/trunk/quex/code_base/buffer/Buffer.i ****      *   buffer before: 
 467:/home/fschaef/prj/quex/trunk/quex/code_base/buffer/Buffer.i ****      *                         _input_p
 468:/home/fschaef/prj/quex/trunk/quex/code_base/buffer/Buffer.i ****      *                            |
 469:/home/fschaef/prj/quex/trunk/quex/code_base/buffer/Buffer.i ****      *            [case( x < 10 ) { print; } else ]
 470:/home/fschaef/prj/quex/trunk/quex/code_base/buffer/Buffer.i ****      *
 471:/home/fschaef/prj/quex/trunk/quex/code_base/buffer/Buffer.i ****      *   buffer after:   
 472:/home/fschaef/prj/quex/trunk/quex/code_base/buffer/Buffer.i ****      *              _input_p
 473:/home/fschaef/prj/quex/trunk/quex/code_base/buffer/Buffer.i ****      *                 |
 474:/home/fschaef/prj/quex/trunk/quex/code_base/buffer/Buffer.i ****      *            [case( x < 10 ) { print; } else ]
 475:/home/fschaef/prj/quex/trunk/quex/code_base/buffer/Buffer.i ****      *
 476:/home/fschaef/prj/quex/trunk/quex/code_base/buffer/Buffer.i ****      *            |----|
 477:/home/fschaef/prj/quex/trunk/quex/code_base/buffer/Buffer.i ****      *         fallback size                                                       */
 478:/home/fschaef/prj/quex/trunk/quex/code_base/buffer/Buffer.i ****     { 
 479:/home/fschaef/prj/quex/trunk/quex/code_base/buffer/Buffer.i ****         QUEX_TYPE_CHARACTER*  ContentFront      = QUEX_NAME(Buffer_content_front)(me);
 480:/home/fschaef/prj/quex/trunk/quex/code_base/buffer/Buffer.i ****         QUEX_TYPE_CHARACTER*  RemainderBegin    = me->_input_p;
 481:/home/fschaef/prj/quex/trunk/quex/code_base/buffer/Buffer.i ****         QUEX_TYPE_CHARACTER*  RemainderEnd      = me->_memory._end_of_file_p;
 482:/home/fschaef/prj/quex/trunk/quex/code_base/buffer/Buffer.i ****         QUEX_TYPE_CHARACTER*  MoveRegionBegin   = RemainderBegin - (ptrdiff_t)QUEX_SETTING_BUFFER_M
 483:/home/fschaef/prj/quex/trunk/quex/code_base/buffer/Buffer.i ****         ptrdiff_t             MoveRegionSize    = (ptrdiff_t)(RemainderEnd - MoveRegionBegin);
 484:/home/fschaef/prj/quex/trunk/quex/code_base/buffer/Buffer.i **** 
 485:/home/fschaef/prj/quex/trunk/quex/code_base/buffer/Buffer.i ****         /* Asserts ensure, that we are running in 'buffer-based-mode' */
 486:/home/fschaef/prj/quex/trunk/quex/code_base/buffer/Buffer.i ****         __quex_assert(me->_content_character_index_begin == 0); 
 487:/home/fschaef/prj/quex/trunk/quex/code_base/buffer/Buffer.i **** 
 488:/home/fschaef/prj/quex/trunk/quex/code_base/buffer/Buffer.i ****         /* If the distance to content front <= the fallback size, no move possible.  */
 489:/home/fschaef/prj/quex/trunk/quex/code_base/buffer/Buffer.i ****         if( MoveRegionBegin <= ContentFront ) { return; }
 490:/home/fschaef/prj/quex/trunk/quex/code_base/buffer/Buffer.i **** 
 491:/home/fschaef/prj/quex/trunk/quex/code_base/buffer/Buffer.i ****         __QUEX_STD_memmove((void*)ContentFront,
 492:/home/fschaef/prj/quex/trunk/quex/code_base/buffer/Buffer.i ****                            (void*)MoveRegionBegin,
 493:/home/fschaef/prj/quex/trunk/quex/code_base/buffer/Buffer.i ****                            (size_t)MoveRegionSize * sizeof(QUEX_TYPE_CHARACTER));
 494:/home/fschaef/prj/quex/trunk/quex/code_base/buffer/Buffer.i **** 
 495:/home/fschaef/prj/quex/trunk/quex/code_base/buffer/Buffer.i **** 
 496:/home/fschaef/prj/quex/trunk/quex/code_base/buffer/Buffer.i ****         /* Anything before '_input_p + 1' is considered to be 'past'. However, leave
 497:/home/fschaef/prj/quex/trunk/quex/code_base/buffer/Buffer.i ****          * a number of 'FALLBACK' to provide some pre-conditioning to work.          */
 498:/home/fschaef/prj/quex/trunk/quex/code_base/buffer/Buffer.i **** 
 499:/home/fschaef/prj/quex/trunk/quex/code_base/buffer/Buffer.i ****         QUEX_NAME(Buffer_end_of_file_set)(me, ContentFront + MoveRegionSize);
 500:/home/fschaef/prj/quex/trunk/quex/code_base/buffer/Buffer.i **** 
 501:/home/fschaef/prj/quex/trunk/quex/code_base/buffer/Buffer.i ****         /* (*) Pointer adaption:
 502:/home/fschaef/prj/quex/trunk/quex/code_base/buffer/Buffer.i ****          *     IMPORTANT: This function is called outside the 'engine' so the 
 503:/home/fschaef/prj/quex/trunk/quex/code_base/buffer/Buffer.i ****          *                next char to be read is: '_input_p' not '_input_p + 1'    */
 504:/home/fschaef/prj/quex/trunk/quex/code_base/buffer/Buffer.i ****         me->_input_p        = ContentFront + QUEX_SETTING_BUFFER_MIN_FALLBACK_N;   
 505:/home/fschaef/prj/quex/trunk/quex/code_base/buffer/Buffer.i ****         /* NOTE: This operation can only happen from outside the lexical analysis
 506:/home/fschaef/prj/quex/trunk/quex/code_base/buffer/Buffer.i ****          *       process, i.e. either in a TERMINAL (pattern action) or outside the
 507:/home/fschaef/prj/quex/trunk/quex/code_base/buffer/Buffer.i ****          *       receive function calls.                                            */
 508:/home/fschaef/prj/quex/trunk/quex/code_base/buffer/Buffer.i ****         me->_lexeme_start_p = me->_input_p; 
 509:/home/fschaef/prj/quex/trunk/quex/code_base/buffer/Buffer.i ****     }
 510:/home/fschaef/prj/quex/trunk/quex/code_base/buffer/Buffer.i **** 
 511:/home/fschaef/prj/quex/trunk/quex/code_base/buffer/Buffer.i ****     QUEX_INLINE size_t          
 512:/home/fschaef/prj/quex/trunk/quex/code_base/buffer/Buffer.i ****     QUEX_NAME(BufferMemory_size)(QUEX_NAME(BufferMemory)* me)
 513:/home/fschaef/prj/quex/trunk/quex/code_base/buffer/Buffer.i ****     { return (size_t)(me->_back - me->_front + 1); }
GAS LISTING /tmp/cc23nfB3.s 			page 14


 514:/home/fschaef/prj/quex/trunk/quex/code_base/buffer/Buffer.i **** 
 515:/home/fschaef/prj/quex/trunk/quex/code_base/buffer/Buffer.i ****     QUEX_INLINE void
 516:/home/fschaef/prj/quex/trunk/quex/code_base/buffer/Buffer.i ****     QUEX_NAME(Buffer_reverse_byte_order)(QUEX_TYPE_CHARACTER* Begin, QUEX_TYPE_CHARACTER* End)
 517:/home/fschaef/prj/quex/trunk/quex/code_base/buffer/Buffer.i ****     {
 518:/home/fschaef/prj/quex/trunk/quex/code_base/buffer/Buffer.i ****         uint8_t              tmp = 0xFF;
 519:/home/fschaef/prj/quex/trunk/quex/code_base/buffer/Buffer.i ****         QUEX_TYPE_CHARACTER* iterator = 0x0;
 520:/home/fschaef/prj/quex/trunk/quex/code_base/buffer/Buffer.i **** 
 521:/home/fschaef/prj/quex/trunk/quex/code_base/buffer/Buffer.i ****         switch( sizeof(QUEX_TYPE_CHARACTER) ) {
 522:/home/fschaef/prj/quex/trunk/quex/code_base/buffer/Buffer.i ****         default:
 523:/home/fschaef/prj/quex/trunk/quex/code_base/buffer/Buffer.i ****             __quex_assert(false);
 524:/home/fschaef/prj/quex/trunk/quex/code_base/buffer/Buffer.i ****             break;
 525:/home/fschaef/prj/quex/trunk/quex/code_base/buffer/Buffer.i ****         case 1:
 526:/home/fschaef/prj/quex/trunk/quex/code_base/buffer/Buffer.i ****             /* Nothing to be done */
 527:/home/fschaef/prj/quex/trunk/quex/code_base/buffer/Buffer.i ****             break;
 528:/home/fschaef/prj/quex/trunk/quex/code_base/buffer/Buffer.i ****         case 2:
 529:/home/fschaef/prj/quex/trunk/quex/code_base/buffer/Buffer.i ****             for(iterator=Begin; iterator != End; ++iterator) {
 530:/home/fschaef/prj/quex/trunk/quex/code_base/buffer/Buffer.i ****                 tmp = *(((uint8_t*)iterator) + 0);
 531:/home/fschaef/prj/quex/trunk/quex/code_base/buffer/Buffer.i ****                 *(((uint8_t*)iterator) + 0) = *(((uint8_t*)iterator) + 1);
 532:/home/fschaef/prj/quex/trunk/quex/code_base/buffer/Buffer.i ****                 *(((uint8_t*)iterator) + 1) = tmp;
 533:/home/fschaef/prj/quex/trunk/quex/code_base/buffer/Buffer.i ****             }
 534:/home/fschaef/prj/quex/trunk/quex/code_base/buffer/Buffer.i ****             break;
 535:/home/fschaef/prj/quex/trunk/quex/code_base/buffer/Buffer.i ****         case 4:
 536:/home/fschaef/prj/quex/trunk/quex/code_base/buffer/Buffer.i ****             for(iterator=Begin; iterator != End; ++iterator) {
 537:/home/fschaef/prj/quex/trunk/quex/code_base/buffer/Buffer.i ****                 tmp = *(((uint8_t*)iterator) + 0);
 538:/home/fschaef/prj/quex/trunk/quex/code_base/buffer/Buffer.i ****                 *(((uint8_t*)iterator) + 0) = *(((uint8_t*)iterator) + 3);
 539:/home/fschaef/prj/quex/trunk/quex/code_base/buffer/Buffer.i ****                 *(((uint8_t*)iterator) + 3) = tmp;
 540:/home/fschaef/prj/quex/trunk/quex/code_base/buffer/Buffer.i ****                 tmp = *(((uint8_t*)iterator) + 1);
 541:/home/fschaef/prj/quex/trunk/quex/code_base/buffer/Buffer.i ****                 *(((uint8_t*)iterator) + 1) = *(((uint8_t*)iterator) + 2);
 542:/home/fschaef/prj/quex/trunk/quex/code_base/buffer/Buffer.i ****                 *(((uint8_t*)iterator) + 2) = tmp;
 543:/home/fschaef/prj/quex/trunk/quex/code_base/buffer/Buffer.i ****             }
 544:/home/fschaef/prj/quex/trunk/quex/code_base/buffer/Buffer.i ****             break;
 545:/home/fschaef/prj/quex/trunk/quex/code_base/buffer/Buffer.i ****         }
 546:/home/fschaef/prj/quex/trunk/quex/code_base/buffer/Buffer.i ****     }
 547:/home/fschaef/prj/quex/trunk/quex/code_base/buffer/Buffer.i **** 
 548:/home/fschaef/prj/quex/trunk/quex/code_base/buffer/Buffer.i ****     QUEX_INLINE void 
 549:/home/fschaef/prj/quex/trunk/quex/code_base/buffer/Buffer.i ****     QUEX_NAME(BufferMemory_construct)(QUEX_NAME(BufferMemory)*  me, 
 550:/home/fschaef/prj/quex/trunk/quex/code_base/buffer/Buffer.i ****                                       QUEX_TYPE_CHARACTER*      Memory, 
 551:/home/fschaef/prj/quex/trunk/quex/code_base/buffer/Buffer.i ****                                       const size_t              Size,
 552:/home/fschaef/prj/quex/trunk/quex/code_base/buffer/Buffer.i ****                                       QUEX_TYPE_CHARACTER*      EndOfFileP)
 553:/home/fschaef/prj/quex/trunk/quex/code_base/buffer/Buffer.i ****     /* InputMemory == 0x0 => Allocate memory yourself. Not externally owned.
 554:/home/fschaef/prj/quex/trunk/quex/code_base/buffer/Buffer.i ****      * Else               => Use provided memory, mark that it is externally owned. */
 555:/home/fschaef/prj/quex/trunk/quex/code_base/buffer/Buffer.i ****     {
 556:/home/fschaef/prj/quex/trunk/quex/code_base/buffer/Buffer.i ****         QUEX_TYPE_CHARACTER*   chunk         = Memory;
 557:/home/fschaef/prj/quex/trunk/quex/code_base/buffer/Buffer.i ****         QUEX_TYPE_CHARACTER*   end_of_file_p = EndOfFileP;
 558:/home/fschaef/prj/quex/trunk/quex/code_base/buffer/Buffer.i ****         bool                   external_f    = true;
 559:/home/fschaef/prj/quex/trunk/quex/code_base/buffer/Buffer.i **** 
 560:/home/fschaef/prj/quex/trunk/quex/code_base/buffer/Buffer.i ****         if( Memory == 0x0 ) { 
 561:/home/fschaef/prj/quex/trunk/quex/code_base/buffer/Buffer.i ****             /* The actual 'memory chunk' is an 'owned member resource' accessed by pointer.
 562:/home/fschaef/prj/quex/trunk/quex/code_base/buffer/Buffer.i ****              * Thus, it is allocated in the constructor.                                    */
 563:/home/fschaef/prj/quex/trunk/quex/code_base/buffer/Buffer.i ****             chunk         = QUEX_NAME(MemoryManager_BufferMemory_allocate)(Size * sizeof(QUEX_TYPE_
 564:/home/fschaef/prj/quex/trunk/quex/code_base/buffer/Buffer.i ****             end_of_file_p = 0x0;
 565:/home/fschaef/prj/quex/trunk/quex/code_base/buffer/Buffer.i ****             external_f    = false; /* We own the memory, not someone outside. */
 566:/home/fschaef/prj/quex/trunk/quex/code_base/buffer/Buffer.i ****         } 
 567:/home/fschaef/prj/quex/trunk/quex/code_base/buffer/Buffer.i **** 
 568:/home/fschaef/prj/quex/trunk/quex/code_base/buffer/Buffer.i ****         QUEX_NAME(BufferMemory_init)(me, chunk, Size, end_of_file_p, external_f);
 569:/home/fschaef/prj/quex/trunk/quex/code_base/buffer/Buffer.i ****     }
 570:/home/fschaef/prj/quex/trunk/quex/code_base/buffer/Buffer.i **** 
GAS LISTING /tmp/cc23nfB3.s 			page 15


 571:/home/fschaef/prj/quex/trunk/quex/code_base/buffer/Buffer.i ****     QUEX_INLINE QUEX_TYPE_CHARACTER* 
 572:/home/fschaef/prj/quex/trunk/quex/code_base/buffer/Buffer.i ****     QUEX_NAME(BufferMemory_reset)(QUEX_NAME(BufferMemory)*  me, 
 573:/home/fschaef/prj/quex/trunk/quex/code_base/buffer/Buffer.i ****                                   QUEX_TYPE_CHARACTER*      Memory, 
 574:/home/fschaef/prj/quex/trunk/quex/code_base/buffer/Buffer.i ****                                   const size_t              Size,
 575:/home/fschaef/prj/quex/trunk/quex/code_base/buffer/Buffer.i ****                                   QUEX_TYPE_CHARACTER*      EndOfContentP)
 576:/home/fschaef/prj/quex/trunk/quex/code_base/buffer/Buffer.i ****     /* Memory == 0x0 => no initialization, only return current pointer to memory. */
 577:/home/fschaef/prj/quex/trunk/quex/code_base/buffer/Buffer.i ****     {
 578:/home/fschaef/prj/quex/trunk/quex/code_base/buffer/Buffer.i ****         QUEX_TYPE_CHARACTER* old_memory = (me->_external_owner_f) ? me->_front : 0x0;
 579:/home/fschaef/prj/quex/trunk/quex/code_base/buffer/Buffer.i **** 
 580:/home/fschaef/prj/quex/trunk/quex/code_base/buffer/Buffer.i ****         if( Memory == 0x0 ) return old_memory;
 581:/home/fschaef/prj/quex/trunk/quex/code_base/buffer/Buffer.i **** 
 582:/home/fschaef/prj/quex/trunk/quex/code_base/buffer/Buffer.i ****         /* Destruct the current memory (if it is not externally owned. */
 583:/home/fschaef/prj/quex/trunk/quex/code_base/buffer/Buffer.i ****         QUEX_NAME(BufferMemory_destruct)(me);
 584:/home/fschaef/prj/quex/trunk/quex/code_base/buffer/Buffer.i **** 
 585:/home/fschaef/prj/quex/trunk/quex/code_base/buffer/Buffer.i ****         /* It is assumed that if memory is reset, it is owned externally not by the engine. */
 586:/home/fschaef/prj/quex/trunk/quex/code_base/buffer/Buffer.i ****         __quex_assert(Memory != 0x0);
 587:/home/fschaef/prj/quex/trunk/quex/code_base/buffer/Buffer.i **** 
 588:/home/fschaef/prj/quex/trunk/quex/code_base/buffer/Buffer.i ****         /* Content must be provided (event empty will do, i.e. EndOfContentP = Memory + 1) */
 589:/home/fschaef/prj/quex/trunk/quex/code_base/buffer/Buffer.i ****         __quex_assert(EndOfContentP > Memory);
 590:/home/fschaef/prj/quex/trunk/quex/code_base/buffer/Buffer.i ****         __quex_assert(EndOfContentP <= Memory + Size);
 591:/home/fschaef/prj/quex/trunk/quex/code_base/buffer/Buffer.i **** 
 592:/home/fschaef/prj/quex/trunk/quex/code_base/buffer/Buffer.i ****         QUEX_NAME(BufferMemory_init)(me, Memory, Size, EndOfContentP, /* ExternalOwnerF */ true);
 593:/home/fschaef/prj/quex/trunk/quex/code_base/buffer/Buffer.i **** 
 594:/home/fschaef/prj/quex/trunk/quex/code_base/buffer/Buffer.i ****         return old_memory;
 595:/home/fschaef/prj/quex/trunk/quex/code_base/buffer/Buffer.i ****     }
 596:/home/fschaef/prj/quex/trunk/quex/code_base/buffer/Buffer.i **** 
 597:/home/fschaef/prj/quex/trunk/quex/code_base/buffer/Buffer.i ****     QUEX_INLINE void 
 598:/home/fschaef/prj/quex/trunk/quex/code_base/buffer/Buffer.i ****     QUEX_NAME(BufferMemory_init)(QUEX_NAME(BufferMemory)*  me, 
 599:/home/fschaef/prj/quex/trunk/quex/code_base/buffer/Buffer.i ****                                  QUEX_TYPE_CHARACTER*      Memory, 
 600:/home/fschaef/prj/quex/trunk/quex/code_base/buffer/Buffer.i ****                                  const size_t              Size,
 601:/home/fschaef/prj/quex/trunk/quex/code_base/buffer/Buffer.i ****                                  QUEX_TYPE_CHARACTER*      EndOfFileP,
 602:/home/fschaef/prj/quex/trunk/quex/code_base/buffer/Buffer.i ****                                  bool                      ExternalOwnerF) 
 603:/home/fschaef/prj/quex/trunk/quex/code_base/buffer/Buffer.i ****     {
 604:/home/fschaef/prj/quex/trunk/quex/code_base/buffer/Buffer.i ****         /* Min(Size) = 2 characters for buffer limit code (front and back) + at least
 605:/home/fschaef/prj/quex/trunk/quex/code_base/buffer/Buffer.i ****          * one character to be read in forward direction.                                   */
 606:/home/fschaef/prj/quex/trunk/quex/code_base/buffer/Buffer.i ****         __quex_assert(Memory != 0x0);
 607:/home/fschaef/prj/quex/trunk/quex/code_base/buffer/Buffer.i ****         __quex_assert(Size != 0);
 608:/home/fschaef/prj/quex/trunk/quex/code_base/buffer/Buffer.i **** #       ifdef QUEX_OPTION_ASSERTS
 609:/home/fschaef/prj/quex/trunk/quex/code_base/buffer/Buffer.i ****         if( Size <= QUEX_SETTING_BUFFER_MIN_FALLBACK_N + 2) {
 610:/home/fschaef/prj/quex/trunk/quex/code_base/buffer/Buffer.i ****             QUEX_ERROR_EXIT("Error: Tried to initialize buffer memory with a size less or equal\n"
 611:/home/fschaef/prj/quex/trunk/quex/code_base/buffer/Buffer.i ****                             "Error: to QUEX_SETTING_BUFFER_MIN_FALLBACK_N + 2. Maybe, define\n"
 612:/home/fschaef/prj/quex/trunk/quex/code_base/buffer/Buffer.i ****                             "Error: -DQUEX_SETTING_BUFFER_MIN_FALLBACK_N=0, if no pre-contexts\n"
 613:/home/fschaef/prj/quex/trunk/quex/code_base/buffer/Buffer.i ****                             "Error: are involved.");
 614:/home/fschaef/prj/quex/trunk/quex/code_base/buffer/Buffer.i ****         }
 615:/home/fschaef/prj/quex/trunk/quex/code_base/buffer/Buffer.i ****         else if( EndOfFileP != 0x0 ) {
 616:/home/fschaef/prj/quex/trunk/quex/code_base/buffer/Buffer.i ****             __quex_assert(EndOfFileP > Memory);
 617:/home/fschaef/prj/quex/trunk/quex/code_base/buffer/Buffer.i ****             __quex_assert(EndOfFileP <= Memory + Size);
 618:/home/fschaef/prj/quex/trunk/quex/code_base/buffer/Buffer.i ****         }
 619:/home/fschaef/prj/quex/trunk/quex/code_base/buffer/Buffer.i **** #       endif
 620:/home/fschaef/prj/quex/trunk/quex/code_base/buffer/Buffer.i **** 
 621:/home/fschaef/prj/quex/trunk/quex/code_base/buffer/Buffer.i ****         me->_front            = Memory;
 622:/home/fschaef/prj/quex/trunk/quex/code_base/buffer/Buffer.i ****         me->_end_of_file_p    = EndOfFileP;
 623:/home/fschaef/prj/quex/trunk/quex/code_base/buffer/Buffer.i ****         me->_back             = Memory + (Size - 1);
 624:/home/fschaef/prj/quex/trunk/quex/code_base/buffer/Buffer.i ****         me->_external_owner_f = ExternalOwnerF;
 625:/home/fschaef/prj/quex/trunk/quex/code_base/buffer/Buffer.i ****         *(me->_front)         = QUEX_SETTING_BUFFER_LIMIT_CODE;
 626:/home/fschaef/prj/quex/trunk/quex/code_base/buffer/Buffer.i ****         *(me->_back)          = QUEX_SETTING_BUFFER_LIMIT_CODE;
 627:/home/fschaef/prj/quex/trunk/quex/code_base/buffer/Buffer.i ****         if( me->_end_of_file_p != 0x0 ) {
GAS LISTING /tmp/cc23nfB3.s 			page 16


 628:/home/fschaef/prj/quex/trunk/quex/code_base/buffer/Buffer.i ****             *(me->_end_of_file_p) = QUEX_SETTING_BUFFER_LIMIT_CODE;
 629:/home/fschaef/prj/quex/trunk/quex/code_base/buffer/Buffer.i ****         }
 630:/home/fschaef/prj/quex/trunk/quex/code_base/buffer/Buffer.i **** 
 631:/home/fschaef/prj/quex/trunk/quex/code_base/buffer/Buffer.i **** #       ifdef QUEX_OPTION_ASSERTS
 632:/home/fschaef/prj/quex/trunk/quex/code_base/buffer/Buffer.i ****         if( EndOfFileP != 0x0 ) {
 633:/home/fschaef/prj/quex/trunk/quex/code_base/buffer/Buffer.i ****            if( EndOfFileP < me->_back - 1 ) {
 634:/home/fschaef/prj/quex/trunk/quex/code_base/buffer/Buffer.i ****                __QUEX_STD_memset(EndOfFileP + 1, 0xFF, (size_t)((me->_back - EndOfFileP) - (ptrdiff
 635:/home/fschaef/prj/quex/trunk/quex/code_base/buffer/Buffer.i ****             }
 636:/home/fschaef/prj/quex/trunk/quex/code_base/buffer/Buffer.i ****         } 
 637:/home/fschaef/prj/quex/trunk/quex/code_base/buffer/Buffer.i **** #       endif 
 638:/home/fschaef/prj/quex/trunk/quex/code_base/buffer/Buffer.i ****     }
 639:/home/fschaef/prj/quex/trunk/quex/code_base/buffer/Buffer.i **** 
 640:/home/fschaef/prj/quex/trunk/quex/code_base/buffer/Buffer.i ****     QUEX_INLINE void 
 641:/home/fschaef/prj/quex/trunk/quex/code_base/buffer/Buffer.i ****     QUEX_NAME(BufferMemory_destruct)(QUEX_NAME(BufferMemory)* me) 
 642:/home/fschaef/prj/quex/trunk/quex/code_base/buffer/Buffer.i ****     {
 643:/home/fschaef/prj/quex/trunk/quex/code_base/buffer/Buffer.i ****         if( me->_external_owner_f == false && me->_front != (QUEX_TYPE_CHARACTER*)0x0 ) {
 177              		.loc 2 643 0
 178 0022 807B0C00 		cmpb	$0, 12(%ebx)
 179 0026 7512     		jne	.L13
 180 0028 8B03     		movl	(%ebx), %eax
 181 002a 85C0     		testl	%eax, %eax
 182 002c 740C     		je	.L13
 183              	.LBB342:
 184              	.LBB343:
 185              	.LBB344:
 186              		.file 3 "/home/fschaef/prj/quex/trunk/quex/code_base/MemoryManager.i"
   1:/home/fschaef/prj/quex/trunk/quex/code_base/MemoryManager.i **** /* -*- C++ -*- vim: set syntax=cpp: */
   2:/home/fschaef/prj/quex/trunk/quex/code_base/MemoryManager.i **** #ifndef __QUEX_INCLUDE_GUARD__MEMORY_MANAGER_I
   3:/home/fschaef/prj/quex/trunk/quex/code_base/MemoryManager.i **** #define __QUEX_INCLUDE_GUARD__MEMORY_MANAGER_I
   4:/home/fschaef/prj/quex/trunk/quex/code_base/MemoryManager.i **** 
   5:/home/fschaef/prj/quex/trunk/quex/code_base/MemoryManager.i **** #include <quex/code_base/definitions>
   6:/home/fschaef/prj/quex/trunk/quex/code_base/MemoryManager.i **** 
   7:/home/fschaef/prj/quex/trunk/quex/code_base/MemoryManager.i **** #if   defined(__QUEX_OPTION_CONVERTER)
   8:/home/fschaef/prj/quex/trunk/quex/code_base/MemoryManager.i **** #   include <quex/code_base/buffer/converter/BufferFiller_Converter>
   9:/home/fschaef/prj/quex/trunk/quex/code_base/MemoryManager.i **** #   if defined (QUEX_OPTION_CONVERTER_ICU)
  10:/home/fschaef/prj/quex/trunk/quex/code_base/MemoryManager.i **** #      include <quex/code_base/buffer/converter/icu/Converter_ICU>
  11:/home/fschaef/prj/quex/trunk/quex/code_base/MemoryManager.i **** #   endif
  12:/home/fschaef/prj/quex/trunk/quex/code_base/MemoryManager.i **** #   if defined (QUEX_OPTION_CONVERTER_ICONV)
  13:/home/fschaef/prj/quex/trunk/quex/code_base/MemoryManager.i **** #      include <quex/code_base/buffer/converter/iconv/Converter_IConv>
  14:/home/fschaef/prj/quex/trunk/quex/code_base/MemoryManager.i **** #   endif
  15:/home/fschaef/prj/quex/trunk/quex/code_base/MemoryManager.i **** #else
  16:/home/fschaef/prj/quex/trunk/quex/code_base/MemoryManager.i **** #   include <quex/code_base/buffer/plain/BufferFiller_Plain>
  17:/home/fschaef/prj/quex/trunk/quex/code_base/MemoryManager.i **** #endif
  18:/home/fschaef/prj/quex/trunk/quex/code_base/MemoryManager.i **** 
  19:/home/fschaef/prj/quex/trunk/quex/code_base/MemoryManager.i **** #include <quex/code_base/temporary_macros_on>
  20:/home/fschaef/prj/quex/trunk/quex/code_base/MemoryManager.i ****  
  21:/home/fschaef/prj/quex/trunk/quex/code_base/MemoryManager.i **** QUEX_NAMESPACE_MAIN_OPEN
  22:/home/fschaef/prj/quex/trunk/quex/code_base/MemoryManager.i **** 
  23:/home/fschaef/prj/quex/trunk/quex/code_base/MemoryManager.i ****     QUEX_INLINE uint8_t*
  24:/home/fschaef/prj/quex/trunk/quex/code_base/MemoryManager.i ****     QUEX_NAME(MemoryManager_Default_allocate)(const size_t ByteN)
  25:/home/fschaef/prj/quex/trunk/quex/code_base/MemoryManager.i ****     {
  26:/home/fschaef/prj/quex/trunk/quex/code_base/MemoryManager.i ****          uint8_t*  result = (uint8_t*)__QUEX_STD_malloc((size_t)ByteN);
  27:/home/fschaef/prj/quex/trunk/quex/code_base/MemoryManager.i **** #        ifdef QUEX_OPTION_ASSERTS
  28:/home/fschaef/prj/quex/trunk/quex/code_base/MemoryManager.i ****          __QUEX_STD_memset((void*)result, 0xFF, ByteN);
  29:/home/fschaef/prj/quex/trunk/quex/code_base/MemoryManager.i **** #        endif
  30:/home/fschaef/prj/quex/trunk/quex/code_base/MemoryManager.i ****          return result;
  31:/home/fschaef/prj/quex/trunk/quex/code_base/MemoryManager.i ****     }
GAS LISTING /tmp/cc23nfB3.s 			page 17


  32:/home/fschaef/prj/quex/trunk/quex/code_base/MemoryManager.i ****        
  33:/home/fschaef/prj/quex/trunk/quex/code_base/MemoryManager.i ****     QUEX_INLINE void 
  34:/home/fschaef/prj/quex/trunk/quex/code_base/MemoryManager.i ****     QUEX_NAME(MemoryManager_Default_free)(void* Obj)  
  35:/home/fschaef/prj/quex/trunk/quex/code_base/MemoryManager.i ****     { __QUEX_STD_free(Obj); }
 187              		.loc 3 35 0
 188 002e 83EC0C   		subl	$12, %esp
 189 0031 50       		pushl	%eax
 190 0032 E8FCFFFF 		call	free
 190      FF
 191 0037 83C410   		addl	$16, %esp
 192              	.L13:
 193              	.LBE344:
 194              	.LBE343:
 195              	.LBE342:
 644:/home/fschaef/prj/quex/trunk/quex/code_base/buffer/Buffer.i ****             QUEX_NAME(MemoryManager_BufferMemory_free)(me->_front);
 645:/home/fschaef/prj/quex/trunk/quex/code_base/buffer/Buffer.i ****             /* me->_external_owner_f = false; */
 646:/home/fschaef/prj/quex/trunk/quex/code_base/buffer/Buffer.i ****         }
 647:/home/fschaef/prj/quex/trunk/quex/code_base/buffer/Buffer.i **** 
 648:/home/fschaef/prj/quex/trunk/quex/code_base/buffer/Buffer.i ****         me->_front = me->_back = (QUEX_TYPE_CHARACTER*)0x0;
 196              		.loc 2 648 0
 197 003a C7430400 		movl	$0, 4(%ebx)
 197      000000
 198 0041 C7030000 		movl	$0, (%ebx)
 198      0000
 199              	.LBE341:
 200              	.LBE340:
 163:/home/fschaef/prj/quex/trunk/quex/code_base/buffer/Buffer.i ****     }
 201              		.loc 2 163 0
 202 0047 8B5DFC   		movl	-4(%ebp), %ebx
 203              	.LVL7:
 204 004a C9       		leave
 205 004b C3       		ret
 206              		.cfi_endproc
 207              	.LFE1178:
 209              		.section	.text._ZN4quex18quex_scan_destructEPNS_9quex_scanE,"axG",@progbits,_ZN4quex18quex_scan_de
 210              		.weak	_ZN4quex18quex_scan_destructEPNS_9quex_scanE
 212              	_ZN4quex18quex_scan_destructEPNS_9quex_scanE:
 213              	.LFB1227:
 214              		.file 4 "/home/fschaef/prj/quex/trunk/quex/code_base/analyzer/member/constructor.i"
   1:/home/fschaef/prj/quex/trunk/quex/code_base/analyzer/member/constructor.i **** /* -*- C++ -*- vim:set syntax=cpp:
   2:/home/fschaef/prj/quex/trunk/quex/code_base/analyzer/member/constructor.i ****  * (C) 2005-2009 Frank-Rene Schaefer
   3:/home/fschaef/prj/quex/trunk/quex/code_base/analyzer/member/constructor.i ****  * ABSOLUTELY NO WARRANTY                   */
   4:/home/fschaef/prj/quex/trunk/quex/code_base/analyzer/member/constructor.i **** #ifndef __QUEX_INCLUDE_GUARD__ANALYZER__MEMBER__CONSTRUCTOR_I
   5:/home/fschaef/prj/quex/trunk/quex/code_base/analyzer/member/constructor.i **** #define __QUEX_INCLUDE_GUARD__ANALYZER__MEMBER__CONSTRUCTOR_I
   6:/home/fschaef/prj/quex/trunk/quex/code_base/analyzer/member/constructor.i **** 
   7:/home/fschaef/prj/quex/trunk/quex/code_base/analyzer/member/constructor.i **** #include <quex/code_base/buffer/Buffer.i>
   8:/home/fschaef/prj/quex/trunk/quex/code_base/analyzer/member/constructor.i **** 
   9:/home/fschaef/prj/quex/trunk/quex/code_base/analyzer/member/constructor.i **** #include <quex/code_base/temporary_macros_on>
  10:/home/fschaef/prj/quex/trunk/quex/code_base/analyzer/member/constructor.i **** 
  11:/home/fschaef/prj/quex/trunk/quex/code_base/analyzer/member/constructor.i **** QUEX_NAMESPACE_MAIN_OPEN
  12:/home/fschaef/prj/quex/trunk/quex/code_base/analyzer/member/constructor.i **** 
  13:/home/fschaef/prj/quex/trunk/quex/code_base/analyzer/member/constructor.i **** QUEX_INLINE void
  14:/home/fschaef/prj/quex/trunk/quex/code_base/analyzer/member/constructor.i **** QUEX_NAME(construct_memory)(QUEX_TYPE_ANALYZER*  me,
  15:/home/fschaef/prj/quex/trunk/quex/code_base/analyzer/member/constructor.i ****                             QUEX_TYPE_CHARACTER* BufferMemoryBegin, 
  16:/home/fschaef/prj/quex/trunk/quex/code_base/analyzer/member/constructor.i ****                             size_t               BufferMemorySize,
  17:/home/fschaef/prj/quex/trunk/quex/code_base/analyzer/member/constructor.i ****                             QUEX_TYPE_CHARACTER* BufferEndOfContentP,  /* = 0x0   */
  18:/home/fschaef/prj/quex/trunk/quex/code_base/analyzer/member/constructor.i ****                             const char*          CharacterEncodingName /* = 0x0   */,
GAS LISTING /tmp/cc23nfB3.s 			page 18


  19:/home/fschaef/prj/quex/trunk/quex/code_base/analyzer/member/constructor.i ****                             bool                 ByteOrderReversionF   /* = false */)
  20:/home/fschaef/prj/quex/trunk/quex/code_base/analyzer/member/constructor.i **** {
  21:/home/fschaef/prj/quex/trunk/quex/code_base/analyzer/member/constructor.i ****     size_t  memory_size = BufferMemoryBegin != 0 ? BufferMemorySize 
  22:/home/fschaef/prj/quex/trunk/quex/code_base/analyzer/member/constructor.i ****                           :                        QUEX_SETTING_BUFFER_SIZE;
  23:/home/fschaef/prj/quex/trunk/quex/code_base/analyzer/member/constructor.i **** #   ifdef QUEX_OPTION_ASSERTS
  24:/home/fschaef/prj/quex/trunk/quex/code_base/analyzer/member/constructor.i ****     QUEX_TYPE_CHARACTER*   iterator = 0x0;
  25:/home/fschaef/prj/quex/trunk/quex/code_base/analyzer/member/constructor.i **** 
  26:/home/fschaef/prj/quex/trunk/quex/code_base/analyzer/member/constructor.i ****     __quex_assert(memory_size == 0 || memory_size > 2);
  27:/home/fschaef/prj/quex/trunk/quex/code_base/analyzer/member/constructor.i ****     if( BufferMemoryBegin != 0x0 ) {
  28:/home/fschaef/prj/quex/trunk/quex/code_base/analyzer/member/constructor.i ****         /* End of File must be inside the buffer, because we assume that the buffer
  29:/home/fschaef/prj/quex/trunk/quex/code_base/analyzer/member/constructor.i ****          * contains all that is required.                                           */
  30:/home/fschaef/prj/quex/trunk/quex/code_base/analyzer/member/constructor.i ****         if( BufferMemorySize <= QUEX_SETTING_BUFFER_MIN_FALLBACK_N + 2) {
  31:/home/fschaef/prj/quex/trunk/quex/code_base/analyzer/member/constructor.i ****             QUEX_ERROR_EXIT("\nConstructor: Provided memory size must be more than 2 greater than\n
  32:/home/fschaef/prj/quex/trunk/quex/code_base/analyzer/member/constructor.i ****                             "Constructor: QUEX_SETTING_BUFFER_MIN_FALLBACK_N. If in doubt, specify\
  33:/home/fschaef/prj/quex/trunk/quex/code_base/analyzer/member/constructor.i ****                             "Constructor: -DQUEX_SETTING_BUFFER_MIN_FALLBACK_N=0 as compile option.
  34:/home/fschaef/prj/quex/trunk/quex/code_base/analyzer/member/constructor.i ****         }
  35:/home/fschaef/prj/quex/trunk/quex/code_base/analyzer/member/constructor.i ****         if(    BufferEndOfContentP < BufferMemoryBegin 
  36:/home/fschaef/prj/quex/trunk/quex/code_base/analyzer/member/constructor.i ****             || BufferEndOfContentP > (BufferMemoryBegin + BufferMemorySize - 1)) {
  37:/home/fschaef/prj/quex/trunk/quex/code_base/analyzer/member/constructor.i ****             QUEX_ERROR_EXIT("\nConstructor: Argument 'BufferEndOfContentP' must be inside the provi
  38:/home/fschaef/prj/quex/trunk/quex/code_base/analyzer/member/constructor.i ****                             "Constructor: buffer (speficied by 'BufferMemoryBegin' and 'BufferMemor
  39:/home/fschaef/prj/quex/trunk/quex/code_base/analyzer/member/constructor.i ****                             "Constructor: Note, that the last element of the buffer is to be filled
  40:/home/fschaef/prj/quex/trunk/quex/code_base/analyzer/member/constructor.i ****                             "Constructor: the buffer limit code character.\n");
  41:/home/fschaef/prj/quex/trunk/quex/code_base/analyzer/member/constructor.i ****         }
  42:/home/fschaef/prj/quex/trunk/quex/code_base/analyzer/member/constructor.i ****     }
  43:/home/fschaef/prj/quex/trunk/quex/code_base/analyzer/member/constructor.i ****     if( BufferEndOfContentP != 0x0 ) {
  44:/home/fschaef/prj/quex/trunk/quex/code_base/analyzer/member/constructor.i ****         __quex_assert(BufferEndOfContentP >  BufferMemoryBegin);
  45:/home/fschaef/prj/quex/trunk/quex/code_base/analyzer/member/constructor.i ****         __quex_assert(BufferEndOfContentP <= BufferMemoryBegin + memory_size - 1);
  46:/home/fschaef/prj/quex/trunk/quex/code_base/analyzer/member/constructor.i **** 
  47:/home/fschaef/prj/quex/trunk/quex/code_base/analyzer/member/constructor.i ****         /* The memory provided must be initialized. If it is not, then that's wrong.
  48:/home/fschaef/prj/quex/trunk/quex/code_base/analyzer/member/constructor.i ****          * Try to detect this by searching for BLC and PTC.                         */
  49:/home/fschaef/prj/quex/trunk/quex/code_base/analyzer/member/constructor.i ****         for(iterator = BufferMemoryBegin + 1; iterator != BufferEndOfContentP; ++iterator) {
  50:/home/fschaef/prj/quex/trunk/quex/code_base/analyzer/member/constructor.i ****             if(    *iterator == QUEX_SETTING_BUFFER_LIMIT_CODE 
  51:/home/fschaef/prj/quex/trunk/quex/code_base/analyzer/member/constructor.i ****                 || *iterator == QUEX_SETTING_PATH_TERMINATION_CODE ) {
  52:/home/fschaef/prj/quex/trunk/quex/code_base/analyzer/member/constructor.i ****                 QUEX_ERROR_EXIT("\nConstructor: Buffer limit code and/or path termination code appe
  53:/home/fschaef/prj/quex/trunk/quex/code_base/analyzer/member/constructor.i ****                                 "Constructor: when pointed to user memory. Note, that the memory po
  54:/home/fschaef/prj/quex/trunk/quex/code_base/analyzer/member/constructor.i ****                                 "Constructor: be initialized!");
  55:/home/fschaef/prj/quex/trunk/quex/code_base/analyzer/member/constructor.i ****             }
  56:/home/fschaef/prj/quex/trunk/quex/code_base/analyzer/member/constructor.i ****         }
  57:/home/fschaef/prj/quex/trunk/quex/code_base/analyzer/member/constructor.i ****     }
  58:/home/fschaef/prj/quex/trunk/quex/code_base/analyzer/member/constructor.i **** #   endif
  59:/home/fschaef/prj/quex/trunk/quex/code_base/analyzer/member/constructor.i **** 
  60:/home/fschaef/prj/quex/trunk/quex/code_base/analyzer/member/constructor.i ****     QUEX_NAME(constructor_core)(me, 
  61:/home/fschaef/prj/quex/trunk/quex/code_base/analyzer/member/constructor.i **** #   if defined(__QUEX_OPTION_PLAIN_C)
  62:/home/fschaef/prj/quex/trunk/quex/code_base/analyzer/member/constructor.i ****                                 (FILE*)0x0,
  63:/home/fschaef/prj/quex/trunk/quex/code_base/analyzer/member/constructor.i **** #   else
  64:/home/fschaef/prj/quex/trunk/quex/code_base/analyzer/member/constructor.i ****                                 (void*)0x0, 
  65:/home/fschaef/prj/quex/trunk/quex/code_base/analyzer/member/constructor.i **** #   endif
  66:/home/fschaef/prj/quex/trunk/quex/code_base/analyzer/member/constructor.i ****                                 CharacterEncodingName, ByteOrderReversionF,
  67:/home/fschaef/prj/quex/trunk/quex/code_base/analyzer/member/constructor.i ****                                 BufferMemoryBegin, memory_size, BufferEndOfContentP);
  68:/home/fschaef/prj/quex/trunk/quex/code_base/analyzer/member/constructor.i **** }
  69:/home/fschaef/prj/quex/trunk/quex/code_base/analyzer/member/constructor.i **** 
  70:/home/fschaef/prj/quex/trunk/quex/code_base/analyzer/member/constructor.i **** QUEX_INLINE void
  71:/home/fschaef/prj/quex/trunk/quex/code_base/analyzer/member/constructor.i **** QUEX_NAME(construct_file_name)(QUEX_TYPE_ANALYZER* me,
  72:/home/fschaef/prj/quex/trunk/quex/code_base/analyzer/member/constructor.i ****                                const char*         Filename, 
  73:/home/fschaef/prj/quex/trunk/quex/code_base/analyzer/member/constructor.i ****                                const char*         CharacterEncodingName /* = 0x0   */,
  74:/home/fschaef/prj/quex/trunk/quex/code_base/analyzer/member/constructor.i ****                                bool                ByteOrderReversionF   /* = false */)
  75:/home/fschaef/prj/quex/trunk/quex/code_base/analyzer/member/constructor.i **** {
GAS LISTING /tmp/cc23nfB3.s 			page 19


  76:/home/fschaef/prj/quex/trunk/quex/code_base/analyzer/member/constructor.i ****     /* Buffer: Size = (see macro def.), Fallback = 10 Characters
  77:/home/fschaef/prj/quex/trunk/quex/code_base/analyzer/member/constructor.i ****      * prefer FILE* based buffers, because we can turn low-level buffering off.
  78:/home/fschaef/prj/quex/trunk/quex/code_base/analyzer/member/constructor.i ****      * ownership of FILE* id passed to the input strategy of the buffer.         */
  79:/home/fschaef/prj/quex/trunk/quex/code_base/analyzer/member/constructor.i ****     __QUEX_STD_FILE*   fh = __QUEX_STD_fopen(Filename, "rb");
  80:/home/fschaef/prj/quex/trunk/quex/code_base/analyzer/member/constructor.i **** 
  81:/home/fschaef/prj/quex/trunk/quex/code_base/analyzer/member/constructor.i ****     QUEX_NAME(construct_FILE)(me, fh, CharacterEncodingName, ByteOrderReversionF);
  82:/home/fschaef/prj/quex/trunk/quex/code_base/analyzer/member/constructor.i **** 
  83:/home/fschaef/prj/quex/trunk/quex/code_base/analyzer/member/constructor.i ****     /* Recall, that this thing as to be deleted/closed */
  84:/home/fschaef/prj/quex/trunk/quex/code_base/analyzer/member/constructor.i ****     me->__file_handle_allocated_by_constructor = fh;
  85:/home/fschaef/prj/quex/trunk/quex/code_base/analyzer/member/constructor.i **** }
  86:/home/fschaef/prj/quex/trunk/quex/code_base/analyzer/member/constructor.i **** 
  87:/home/fschaef/prj/quex/trunk/quex/code_base/analyzer/member/constructor.i **** QUEX_INLINE void
  88:/home/fschaef/prj/quex/trunk/quex/code_base/analyzer/member/constructor.i **** QUEX_NAME(construct_FILE)(QUEX_TYPE_ANALYZER* me,
  89:/home/fschaef/prj/quex/trunk/quex/code_base/analyzer/member/constructor.i ****                           __QUEX_STD_FILE*    fh, 
  90:/home/fschaef/prj/quex/trunk/quex/code_base/analyzer/member/constructor.i ****                           const char*         CharacterEncodingName /* = 0x0   */,
  91:/home/fschaef/prj/quex/trunk/quex/code_base/analyzer/member/constructor.i ****                           bool                ByteOrderReversionF   /* = false */)
  92:/home/fschaef/prj/quex/trunk/quex/code_base/analyzer/member/constructor.i **** {
  93:/home/fschaef/prj/quex/trunk/quex/code_base/analyzer/member/constructor.i ****     if( fh == NULL )             QUEX_ERROR_EXIT("Error: received NULL as a file handle.");
  94:/home/fschaef/prj/quex/trunk/quex/code_base/analyzer/member/constructor.i **** 
  95:/home/fschaef/prj/quex/trunk/quex/code_base/analyzer/member/constructor.i ****     /* At the time of this writing 'stdin' as located in the C++ global namespace. 
  96:/home/fschaef/prj/quex/trunk/quex/code_base/analyzer/member/constructor.i ****      * This seemed suspicous to the author. To avoid compilation errors in the future
  97:/home/fschaef/prj/quex/trunk/quex/code_base/analyzer/member/constructor.i ****      * the test for the standard input is only active in 'C'. It is only about
  98:/home/fschaef/prj/quex/trunk/quex/code_base/analyzer/member/constructor.i ****      * user information anyway. So better no risks taken.      <fschaef 2010y02m06d> */
  99:/home/fschaef/prj/quex/trunk/quex/code_base/analyzer/member/constructor.i **** #   ifdef __QUEX_OPTION_PLAIN_C
 100:/home/fschaef/prj/quex/trunk/quex/code_base/analyzer/member/constructor.i ****     if( fh == __QUEX_STD_STDIN ) QUEX_ERROR_EXIT(__QUEX_MESSAGE_STDIN_IN_CONSTRUCTOR);
 101:/home/fschaef/prj/quex/trunk/quex/code_base/analyzer/member/constructor.i **** #   endif
 102:/home/fschaef/prj/quex/trunk/quex/code_base/analyzer/member/constructor.i ****     setbuf(fh, 0);   /* turn off system based buffering! 
 103:/home/fschaef/prj/quex/trunk/quex/code_base/analyzer/member/constructor.i ****     **               ** this is essential to profit from the quex buffer! */
 104:/home/fschaef/prj/quex/trunk/quex/code_base/analyzer/member/constructor.i ****     QUEX_NAME(constructor_core)(me, fh, 
 105:/home/fschaef/prj/quex/trunk/quex/code_base/analyzer/member/constructor.i ****                                 CharacterEncodingName, ByteOrderReversionF, 
 106:/home/fschaef/prj/quex/trunk/quex/code_base/analyzer/member/constructor.i ****                                 0x0, QUEX_SETTING_BUFFER_SIZE, 0x0);
 107:/home/fschaef/prj/quex/trunk/quex/code_base/analyzer/member/constructor.i **** }
 108:/home/fschaef/prj/quex/trunk/quex/code_base/analyzer/member/constructor.i **** 
 109:/home/fschaef/prj/quex/trunk/quex/code_base/analyzer/member/constructor.i **** #ifndef __QUEX_OPTION_PLAIN_C
 110:/home/fschaef/prj/quex/trunk/quex/code_base/analyzer/member/constructor.i **** QUEX_INLINE void
 111:/home/fschaef/prj/quex/trunk/quex/code_base/analyzer/member/constructor.i **** QUEX_NAME(construct_istream)(QUEX_TYPE_ANALYZER* me,
 112:/home/fschaef/prj/quex/trunk/quex/code_base/analyzer/member/constructor.i ****                              std::istream*       p_input_stream, 
 113:/home/fschaef/prj/quex/trunk/quex/code_base/analyzer/member/constructor.i ****                              const char*         CharacterEncodingName /* = 0x0   */,
 114:/home/fschaef/prj/quex/trunk/quex/code_base/analyzer/member/constructor.i ****                              bool                ByteOrderReversionF   /* = false */)
 115:/home/fschaef/prj/quex/trunk/quex/code_base/analyzer/member/constructor.i **** {
 116:/home/fschaef/prj/quex/trunk/quex/code_base/analyzer/member/constructor.i ****     if( p_input_stream == NULL )     QUEX_ERROR_EXIT("Error: received NULL as pointer to input stre
 117:/home/fschaef/prj/quex/trunk/quex/code_base/analyzer/member/constructor.i ****     if( p_input_stream == std::cin ) QUEX_ERROR_EXIT(__QUEX_MESSAGE_STDIN_IN_CONSTRUCTOR);
 118:/home/fschaef/prj/quex/trunk/quex/code_base/analyzer/member/constructor.i ****     QUEX_NAME(constructor_core)(me, p_input_stream, 
 119:/home/fschaef/prj/quex/trunk/quex/code_base/analyzer/member/constructor.i ****                                 CharacterEncodingName, ByteOrderReversionF, 
 120:/home/fschaef/prj/quex/trunk/quex/code_base/analyzer/member/constructor.i ****                                 0x0,  QUEX_SETTING_BUFFER_SIZE, 0x0);
 121:/home/fschaef/prj/quex/trunk/quex/code_base/analyzer/member/constructor.i **** }
 122:/home/fschaef/prj/quex/trunk/quex/code_base/analyzer/member/constructor.i **** #endif
 123:/home/fschaef/prj/quex/trunk/quex/code_base/analyzer/member/constructor.i **** 
 124:/home/fschaef/prj/quex/trunk/quex/code_base/analyzer/member/constructor.i **** 
 125:/home/fschaef/prj/quex/trunk/quex/code_base/analyzer/member/constructor.i **** #if defined(__QUEX_OPTION_WCHAR_T) && ! defined(__QUEX_OPTION_PLAIN_C)
 126:/home/fschaef/prj/quex/trunk/quex/code_base/analyzer/member/constructor.i **** QUEX_INLINE void
 127:/home/fschaef/prj/quex/trunk/quex/code_base/analyzer/member/constructor.i **** QUEX_NAME(construct_wistream)(QUEX_TYPE_ANALYZER* me,
 128:/home/fschaef/prj/quex/trunk/quex/code_base/analyzer/member/constructor.i ****                               std::wistream*      p_input_stream, 
 129:/home/fschaef/prj/quex/trunk/quex/code_base/analyzer/member/constructor.i ****                               const char*         CharacterEncodingName /* = 0x0   */,
 130:/home/fschaef/prj/quex/trunk/quex/code_base/analyzer/member/constructor.i ****                               bool                ByteOrderReversionF   /* = false */)
 131:/home/fschaef/prj/quex/trunk/quex/code_base/analyzer/member/constructor.i **** {
 132:/home/fschaef/prj/quex/trunk/quex/code_base/analyzer/member/constructor.i ****     if( p_input_stream == NULL ) 
GAS LISTING /tmp/cc23nfB3.s 			page 20


 133:/home/fschaef/prj/quex/trunk/quex/code_base/analyzer/member/constructor.i ****         QUEX_ERROR_EXIT("Error: received NULL as pointer to input stream.\n");
 134:/home/fschaef/prj/quex/trunk/quex/code_base/analyzer/member/constructor.i ****     QUEX_NAME(constructor_core)(me, p_input_stream, 
 135:/home/fschaef/prj/quex/trunk/quex/code_base/analyzer/member/constructor.i ****                                 CharacterEncodingName, ByteOrderReversionF, 
 136:/home/fschaef/prj/quex/trunk/quex/code_base/analyzer/member/constructor.i ****                                 0x0, QUEX_SETTING_BUFFER_SIZE, 0x0);
 137:/home/fschaef/prj/quex/trunk/quex/code_base/analyzer/member/constructor.i **** }
 138:/home/fschaef/prj/quex/trunk/quex/code_base/analyzer/member/constructor.i **** #endif
 139:/home/fschaef/prj/quex/trunk/quex/code_base/analyzer/member/constructor.i **** 
 140:/home/fschaef/prj/quex/trunk/quex/code_base/analyzer/member/constructor.i **** QUEX_INLINE void
 141:/home/fschaef/prj/quex/trunk/quex/code_base/analyzer/member/constructor.i **** QUEX_NAME(destruct)(QUEX_TYPE_ANALYZER* me) 
 142:/home/fschaef/prj/quex/trunk/quex/code_base/analyzer/member/constructor.i **** {
 215              		.loc 4 142 0
 216              		.cfi_startproc
 217              		.cfi_personality 0x0,__gxx_personality_v0
 218              	.LVL8:
 219 0000 55       		pushl	%ebp
 220              	.LCFI12:
 221              		.cfi_def_cfa_offset 8
 222 0001 89E5     		movl	%esp, %ebp
 223              		.cfi_offset 5, -8
 224              	.LCFI13:
 225              		.cfi_def_cfa_register 5
 226 0003 57       		pushl	%edi
 227 0004 56       		pushl	%esi
 228 0005 53       		pushl	%ebx
 229 0006 83EC1C   		subl	$28, %esp
 230              		.loc 4 142 0
 231 0009 8B5D08   		movl	8(%ebp), %ebx
 232              		.cfi_offset 3, -20
 233              		.cfi_offset 6, -16
 234              		.cfi_offset 7, -12
 235              	.LBB345:
 236              	.LBB346:
 237              	.LBB347:
 238              	.LBB348:
 239              	.LBB349:
 240              	.LBB350:
 241              		.file 5 "/home/fschaef/prj/quex/trunk/quex/code_base/analyzer/member/include-stack.i"
   1:/home/fschaef/prj/quex/trunk/quex/code_base/analyzer/member/include-stack.i **** /* -*- C++ -*- vim:set syntax=cpp:
   2:/home/fschaef/prj/quex/trunk/quex/code_base/analyzer/member/include-stack.i ****  *
   3:/home/fschaef/prj/quex/trunk/quex/code_base/analyzer/member/include-stack.i ****  * (C) 2004-2009 Frank-Rene Schaefer
   4:/home/fschaef/prj/quex/trunk/quex/code_base/analyzer/member/include-stack.i ****  *
   5:/home/fschaef/prj/quex/trunk/quex/code_base/analyzer/member/include-stack.i ****  * __QUEX_INCLUDE_GUARD__ANALYZER__MEMBER__INCLUDE_STACK_I may be undefined in case
   6:/home/fschaef/prj/quex/trunk/quex/code_base/analyzer/member/include-stack.i ****  *    that multiple lexical analyzers are used. Then, the name of the
   7:/home/fschaef/prj/quex/trunk/quex/code_base/analyzer/member/include-stack.i ****  *    QUEX_NAME(Accumulator) must be different.                             */
   8:/home/fschaef/prj/quex/trunk/quex/code_base/analyzer/member/include-stack.i **** #ifndef __QUEX_INCLUDE_GUARD__ANALYZER__MEMBER__INCLUDE_STACK_I
   9:/home/fschaef/prj/quex/trunk/quex/code_base/analyzer/member/include-stack.i **** #define __QUEX_INCLUDE_GUARD__ANALYZER__MEMBER__INCLUDE_STACK_I
  10:/home/fschaef/prj/quex/trunk/quex/code_base/analyzer/member/include-stack.i **** 
  11:/home/fschaef/prj/quex/trunk/quex/code_base/analyzer/member/include-stack.i **** #ifndef   QUEX_TYPE_ANALYZER
  12:/home/fschaef/prj/quex/trunk/quex/code_base/analyzer/member/include-stack.i **** #   error "Macro QUEX_TYPE_ANALYZER must be defined before inclusion of this file."
  13:/home/fschaef/prj/quex/trunk/quex/code_base/analyzer/member/include-stack.i **** #endif
  14:/home/fschaef/prj/quex/trunk/quex/code_base/analyzer/member/include-stack.i **** 
  15:/home/fschaef/prj/quex/trunk/quex/code_base/analyzer/member/include-stack.i **** 
  16:/home/fschaef/prj/quex/trunk/quex/code_base/analyzer/member/include-stack.i **** #include <quex/code_base/temporary_macros_on>
  17:/home/fschaef/prj/quex/trunk/quex/code_base/analyzer/member/include-stack.i **** 
  18:/home/fschaef/prj/quex/trunk/quex/code_base/analyzer/member/include-stack.i **** QUEX_NAMESPACE_MAIN_OPEN
  19:/home/fschaef/prj/quex/trunk/quex/code_base/analyzer/member/include-stack.i **** 
  20:/home/fschaef/prj/quex/trunk/quex/code_base/analyzer/member/include-stack.i ****     TEMPLATE_IN(InputHandleT) void    
GAS LISTING /tmp/cc23nfB3.s 			page 21


  21:/home/fschaef/prj/quex/trunk/quex/code_base/analyzer/member/include-stack.i ****     QUEX_NAME(include_push)(QUEX_TYPE_ANALYZER*    me,
  22:/home/fschaef/prj/quex/trunk/quex/code_base/analyzer/member/include-stack.i ****                             InputHandleT*          Optional_InputHandle,
  23:/home/fschaef/prj/quex/trunk/quex/code_base/analyzer/member/include-stack.i ****                             QUEX_TYPE_CHARACTER*   Optional_InputName,
  24:/home/fschaef/prj/quex/trunk/quex/code_base/analyzer/member/include-stack.i ****                             const QUEX_NAME(Mode)* Mode, 
  25:/home/fschaef/prj/quex/trunk/quex/code_base/analyzer/member/include-stack.i ****                             const char*            CharacterCodecName /* = 0x0 */)
  26:/home/fschaef/prj/quex/trunk/quex/code_base/analyzer/member/include-stack.i ****     {
  27:/home/fschaef/prj/quex/trunk/quex/code_base/analyzer/member/include-stack.i ****         /* (A) Freezing and Copying away:
  28:/home/fschaef/prj/quex/trunk/quex/code_base/analyzer/member/include-stack.i ****          *
  29:/home/fschaef/prj/quex/trunk/quex/code_base/analyzer/member/include-stack.i ****          *     memento_pack(...): Store the lexical analyzer's to the state before including   */
  30:/home/fschaef/prj/quex/trunk/quex/code_base/analyzer/member/include-stack.i ****         InputHandleT*        input_handle = Optional_InputHandle;
  31:/home/fschaef/prj/quex/trunk/quex/code_base/analyzer/member/include-stack.i **** #       ifndef __QUEX_OPTION_PLAIN_C
  32:/home/fschaef/prj/quex/trunk/quex/code_base/analyzer/member/include-stack.i ****         QUEX_NAME(Memento)*  m            = QUEX_NAME(memento_pack)<InputHandleT>(me, Optional_Inpu
  33:/home/fschaef/prj/quex/trunk/quex/code_base/analyzer/member/include-stack.i **** #       else
  34:/home/fschaef/prj/quex/trunk/quex/code_base/analyzer/member/include-stack.i ****         QUEX_NAME(Memento)*  m            = QUEX_NAME(memento_pack)(me, Optional_InputName, &input_
  35:/home/fschaef/prj/quex/trunk/quex/code_base/analyzer/member/include-stack.i **** #       endif
  36:/home/fschaef/prj/quex/trunk/quex/code_base/analyzer/member/include-stack.i **** 
  37:/home/fschaef/prj/quex/trunk/quex/code_base/analyzer/member/include-stack.i ****         if( input_handle == 0x0 ) {
  38:/home/fschaef/prj/quex/trunk/quex/code_base/analyzer/member/include-stack.i ****             QUEX_ERROR_EXIT("Segment 'memento_pack' segment did not set the input_handle.");
  39:/home/fschaef/prj/quex/trunk/quex/code_base/analyzer/member/include-stack.i ****         }
  40:/home/fschaef/prj/quex/trunk/quex/code_base/analyzer/member/include-stack.i **** 
  41:/home/fschaef/prj/quex/trunk/quex/code_base/analyzer/member/include-stack.i ****         /* (B) Initializations on Inclusion:
  42:/home/fschaef/prj/quex/trunk/quex/code_base/analyzer/member/include-stack.i ****          *  
  43:/home/fschaef/prj/quex/trunk/quex/code_base/analyzer/member/include-stack.i ****          *    (1) A new buffer is required for the new content.                           */
  44:/home/fschaef/prj/quex/trunk/quex/code_base/analyzer/member/include-stack.i ****         QUEX_NAME(Buffer_construct)(&me->buffer, input_handle, 
  45:/home/fschaef/prj/quex/trunk/quex/code_base/analyzer/member/include-stack.i ****                                     0x0, QUEX_SETTING_BUFFER_SIZE, 0x0,
  46:/home/fschaef/prj/quex/trunk/quex/code_base/analyzer/member/include-stack.i ****                                     CharacterCodecName, QUEX_SETTING_TRANSLATION_BUFFER_SIZE,
  47:/home/fschaef/prj/quex/trunk/quex/code_base/analyzer/member/include-stack.i ****                                     me->buffer._byte_order_reversion_active_f);
  48:/home/fschaef/prj/quex/trunk/quex/code_base/analyzer/member/include-stack.i **** 
  49:/home/fschaef/prj/quex/trunk/quex/code_base/analyzer/member/include-stack.i ****         /*    (2) If requested: transition to a specific mode for new file.               */
  50:/home/fschaef/prj/quex/trunk/quex/code_base/analyzer/member/include-stack.i ****         if( Mode != 0x0 ) QUEX_NAME(set_mode_brutally)(me, (QUEX_NAME(Mode)*)Mode);
  51:/home/fschaef/prj/quex/trunk/quex/code_base/analyzer/member/include-stack.i ****         /*        now leave alone:
  52:/home/fschaef/prj/quex/trunk/quex/code_base/analyzer/member/include-stack.i ****          *               __current_mode_p 
  53:/home/fschaef/prj/quex/trunk/quex/code_base/analyzer/member/include-stack.i ****          *               current_analyzer_function                                       
  54:/home/fschaef/prj/quex/trunk/quex/code_base/analyzer/member/include-stack.i ****          *               DEBUG_analyzer_function_at_entry                                 */
  55:/home/fschaef/prj/quex/trunk/quex/code_base/analyzer/member/include-stack.i **** 
  56:/home/fschaef/prj/quex/trunk/quex/code_base/analyzer/member/include-stack.i ****         /*    (*) Mode stack is not subject to include handling.                          */
  57:/home/fschaef/prj/quex/trunk/quex/code_base/analyzer/member/include-stack.i ****         /*    (*) Tokens and token queues are not subject to include handling.            */
  58:/home/fschaef/prj/quex/trunk/quex/code_base/analyzer/member/include-stack.i **** 
  59:/home/fschaef/prj/quex/trunk/quex/code_base/analyzer/member/include-stack.i ****         /*    (3) Initialize line, column, and indentation counters.                      */
  60:/home/fschaef/prj/quex/trunk/quex/code_base/analyzer/member/include-stack.i **** #       ifdef __QUEX_OPTION_COUNTER
  61:/home/fschaef/prj/quex/trunk/quex/code_base/analyzer/member/include-stack.i ****         QUEX_NAME(Counter_construct)(&me->counter);
  62:/home/fschaef/prj/quex/trunk/quex/code_base/analyzer/member/include-stack.i **** #       endif
  63:/home/fschaef/prj/quex/trunk/quex/code_base/analyzer/member/include-stack.i **** 
  64:/home/fschaef/prj/quex/trunk/quex/code_base/analyzer/member/include-stack.i ****         /*    (4) Initialize accumulator content.                                         */
  65:/home/fschaef/prj/quex/trunk/quex/code_base/analyzer/member/include-stack.i **** #       ifdef QUEX_OPTION_STRING_ACCUMULATOR
  66:/home/fschaef/prj/quex/trunk/quex/code_base/analyzer/member/include-stack.i ****         QUEX_NAME(Accumulator_construct)(&me->accumulator, me);
  67:/home/fschaef/prj/quex/trunk/quex/code_base/analyzer/member/include-stack.i **** #       endif
  68:/home/fschaef/prj/quex/trunk/quex/code_base/analyzer/member/include-stack.i ****         /*    (*) Post categorizer is not subject to include handling.                    */
  69:/home/fschaef/prj/quex/trunk/quex/code_base/analyzer/member/include-stack.i ****         /*    (5) File handle allocated by **initial constructor** == 0x0 to prevent 
  70:/home/fschaef/prj/quex/trunk/quex/code_base/analyzer/member/include-stack.i ****          *        deletion by pre-mature destructor call.                                 */
  71:/home/fschaef/prj/quex/trunk/quex/code_base/analyzer/member/include-stack.i ****         me->__file_handle_allocated_by_constructor = 0x0;
  72:/home/fschaef/prj/quex/trunk/quex/code_base/analyzer/member/include-stack.i **** 
  73:/home/fschaef/prj/quex/trunk/quex/code_base/analyzer/member/include-stack.i ****         /*    (6) Keep track of 'who's your daddy?'                                       */
  74:/home/fschaef/prj/quex/trunk/quex/code_base/analyzer/member/include-stack.i ****         me->_parent_memento = m;
  75:/home/fschaef/prj/quex/trunk/quex/code_base/analyzer/member/include-stack.i ****     }   
  76:/home/fschaef/prj/quex/trunk/quex/code_base/analyzer/member/include-stack.i **** 
  77:/home/fschaef/prj/quex/trunk/quex/code_base/analyzer/member/include-stack.i ****     TEMPLATE_IN(InputHandleT) void    
GAS LISTING /tmp/cc23nfB3.s 			page 22


  78:/home/fschaef/prj/quex/trunk/quex/code_base/analyzer/member/include-stack.i ****     QUEX_NAME(include_push_input_name)(QUEX_TYPE_ANALYZER*      me,
  79:/home/fschaef/prj/quex/trunk/quex/code_base/analyzer/member/include-stack.i ****                                        QUEX_TYPE_CHARACTER*     InputName,
  80:/home/fschaef/prj/quex/trunk/quex/code_base/analyzer/member/include-stack.i ****                                        const QUEX_NAME(Mode)*   mode, 
  81:/home/fschaef/prj/quex/trunk/quex/code_base/analyzer/member/include-stack.i ****                                        const char*              CharacterCodecName /* = 0x0 */)
  82:/home/fschaef/prj/quex/trunk/quex/code_base/analyzer/member/include-stack.i ****     {
  83:/home/fschaef/prj/quex/trunk/quex/code_base/analyzer/member/include-stack.i ****         /* The Optional_InputHandle = 0x0, which indicates that InputName tells how to 
  84:/home/fschaef/prj/quex/trunk/quex/code_base/analyzer/member/include-stack.i ****          * open the input stream.                                                       */
  85:/home/fschaef/prj/quex/trunk/quex/code_base/analyzer/member/include-stack.i **** #       ifndef __QUEX_OPTION_PLAIN_C
  86:/home/fschaef/prj/quex/trunk/quex/code_base/analyzer/member/include-stack.i ****         QUEX_NAME(include_push)<InputHandleT>(me, 0x0, InputName, mode, CharacterCodecName);
  87:/home/fschaef/prj/quex/trunk/quex/code_base/analyzer/member/include-stack.i **** #       else
  88:/home/fschaef/prj/quex/trunk/quex/code_base/analyzer/member/include-stack.i ****         QUEX_NAME(include_push)(me, 0x0, InputName, mode, CharacterCodecName);
  89:/home/fschaef/prj/quex/trunk/quex/code_base/analyzer/member/include-stack.i **** #       endif
  90:/home/fschaef/prj/quex/trunk/quex/code_base/analyzer/member/include-stack.i ****     }
  91:/home/fschaef/prj/quex/trunk/quex/code_base/analyzer/member/include-stack.i **** 
  92:/home/fschaef/prj/quex/trunk/quex/code_base/analyzer/member/include-stack.i ****     TEMPLATE_IN(InputHandleT) void    
  93:/home/fschaef/prj/quex/trunk/quex/code_base/analyzer/member/include-stack.i ****     QUEX_NAME(include_push_input_handle)(QUEX_TYPE_ANALYZER*      me,
  94:/home/fschaef/prj/quex/trunk/quex/code_base/analyzer/member/include-stack.i ****                                          InputHandleT*            sh,
  95:/home/fschaef/prj/quex/trunk/quex/code_base/analyzer/member/include-stack.i ****                                          const QUEX_NAME(Mode)*   mode, 
  96:/home/fschaef/prj/quex/trunk/quex/code_base/analyzer/member/include-stack.i ****                                          const char*              CharacterCodecName /* = 0x0 */)
  97:/home/fschaef/prj/quex/trunk/quex/code_base/analyzer/member/include-stack.i ****     {
  98:/home/fschaef/prj/quex/trunk/quex/code_base/analyzer/member/include-stack.i ****         /* The Optional_InputName = 0x0, which indicates that the InputName is defined. */
  99:/home/fschaef/prj/quex/trunk/quex/code_base/analyzer/member/include-stack.i **** #       ifndef __QUEX_OPTION_PLAIN_C
 100:/home/fschaef/prj/quex/trunk/quex/code_base/analyzer/member/include-stack.i ****         QUEX_NAME(include_push)<InputHandleT>(me, sh, 0x0, mode, CharacterCodecName);
 101:/home/fschaef/prj/quex/trunk/quex/code_base/analyzer/member/include-stack.i **** #       else
 102:/home/fschaef/prj/quex/trunk/quex/code_base/analyzer/member/include-stack.i ****         QUEX_NAME(include_push)(me, sh, 0x0, mode, CharacterCodecName);
 103:/home/fschaef/prj/quex/trunk/quex/code_base/analyzer/member/include-stack.i **** #       endif
 104:/home/fschaef/prj/quex/trunk/quex/code_base/analyzer/member/include-stack.i ****     }
 105:/home/fschaef/prj/quex/trunk/quex/code_base/analyzer/member/include-stack.i **** 
 106:/home/fschaef/prj/quex/trunk/quex/code_base/analyzer/member/include-stack.i ****     QUEX_INLINE bool
 107:/home/fschaef/prj/quex/trunk/quex/code_base/analyzer/member/include-stack.i ****     QUEX_NAME(include_pop)(QUEX_TYPE_ANALYZER* me) 
 108:/home/fschaef/prj/quex/trunk/quex/code_base/analyzer/member/include-stack.i ****     {
 109:/home/fschaef/prj/quex/trunk/quex/code_base/analyzer/member/include-stack.i ****         /* Not included? return 'false' to indicate we're on the top level       */
 110:/home/fschaef/prj/quex/trunk/quex/code_base/analyzer/member/include-stack.i ****         if( me->_parent_memento == 0x0 ) return false; 
 111:/home/fschaef/prj/quex/trunk/quex/code_base/analyzer/member/include-stack.i **** 
 112:/home/fschaef/prj/quex/trunk/quex/code_base/analyzer/member/include-stack.i ****         /* (A) Uninitializing of unused objects:                                 
 113:/home/fschaef/prj/quex/trunk/quex/code_base/analyzer/member/include-stack.i ****          *    (1) A new buffer is required for the new content.                           */
 114:/home/fschaef/prj/quex/trunk/quex/code_base/analyzer/member/include-stack.i ****         QUEX_NAME(Buffer_destruct)(&me->buffer);
 242              		.loc 5 114 0
 243 000c 8D5318   		leal	24(%ebx), %edx
 244              	.LBB351:
 245              	.LBB352:
 246              		.file 6 "./out/quex_scan"
   1:./out/quex_scan **** /* -*- C++ -*-   vim: set syntax=cpp:
   2:./out/quex_scan ****  * CONTENT: 
   3:./out/quex_scan ****  *
   4:./out/quex_scan ****  * (1) Includes for required standard headers.
   5:./out/quex_scan ****  * (2) Definitions of options and settings for the particular application.
   6:./out/quex_scan ****  * (3) #include <quex/code_base/definitions> for default settings.
   7:./out/quex_scan ****  * (4) Lexical Analyzer class quex_scan and its memento class.
   8:./out/quex_scan ****  * (5) Constructor and init core of quex_scan.
   9:./out/quex_scan ****  * (6) Memento pack and unpack functions.
  10:./out/quex_scan ****  *
  11:./out/quex_scan ****  * File content generated by Quex 0.58.1.
  12:./out/quex_scan ****  *
  13:./out/quex_scan ****  * (C) 2005-2010 Frank-Rene Schaefer
  14:./out/quex_scan ****  * ABSOLUTELY NO WARRANTY                                                      */
  15:./out/quex_scan **** #ifndef __QUEX_INCLUDE_GUARD__ANALYZER__GENERATED____QUEX____QUEX_SCAN
GAS LISTING /tmp/cc23nfB3.s 			page 23


  16:./out/quex_scan **** #define __QUEX_INCLUDE_GUARD__ANALYZER__GENERATED____QUEX____QUEX_SCAN
  17:./out/quex_scan **** 
  18:./out/quex_scan **** #ifdef      __QUEX_INCLUDE_INDICATOR__ANALYZER__MAIN
  19:./out/quex_scan ****     /* In case that multiple lexical analyzers are used the same header
  20:./out/quex_scan ****      * files are compiled with a different setting of the macros. The
  21:./out/quex_scan ****      * undef of the include guards happens in the following file.              */
  22:./out/quex_scan **** #   include <quex/code_base/include-guard-undef>
  23:./out/quex_scan **** #   include <quex/code_base/analyzer/member/token-sending-undef.i>
  24:./out/quex_scan **** #   undef   __QUEX_INCLUDE_GUARD__ANALYZER__CONFIGURATION____QUEX____QUEX_SCAN
  25:./out/quex_scan **** #else
  26:./out/quex_scan **** #   define  __QUEX_INCLUDE_INDICATOR__ANALYZER__MAIN
  27:./out/quex_scan **** #endif
  28:./out/quex_scan **** 
  29:./out/quex_scan **** #include "out/quex_scan-configuration"
  30:./out/quex_scan **** 
  31:./out/quex_scan **** #include <quex/code_base/definitions>
  32:./out/quex_scan **** 
  33:./out/quex_scan **** QUEX_NAMESPACE_MAIN_OPEN 
  34:./out/quex_scan ****     struct QUEX_NAME(Engine_tag);
  35:./out/quex_scan ****     struct QUEX_NAME(Memento_tag);
  36:./out/quex_scan ****     
  37:./out/quex_scan ****     class  QUEX_TYPE0_ANALYZER;    /* quex_scan */
  38:./out/quex_scan ****     typedef __QUEX_TYPE_ANALYZER_RETURN_VALUE  (*QUEX_NAME(AnalyzerFunctionP))(QUEX_TYPE_ANALYZER*)
  39:./out/quex_scan **** QUEX_NAMESPACE_MAIN_CLOSE
  40:./out/quex_scan **** 
  41:./out/quex_scan **** /* Token Class Declaration must preceed the user's header, so that the user
  42:./out/quex_scan ****  * can refer to it at ease.                                                    */
  43:./out/quex_scan **** QUEX_NAMESPACE_TOKEN_OPEN
  44:./out/quex_scan ****     class  QUEX_TYPE0_TOKEN;
  45:./out/quex_scan **** QUEX_NAMESPACE_TOKEN_CLOSE
  46:./out/quex_scan **** 
  47:./out/quex_scan **** /* START: User defined header content _________________________________________
  48:./out/quex_scan ****  *        Must come before token class definition, since the token class 
  49:./out/quex_scan ****  *        might rely on contents of the header.                                */
  50:./out/quex_scan **** 
  51:./out/quex_scan **** 
  52:./out/quex_scan **** /* END: _______________________________________________________________________*/
  53:./out/quex_scan **** 
  54:./out/quex_scan **** #if defined(__QUEX_OPTION_CONVERTER_HELPER)
  55:./out/quex_scan **** #   include "quex/code_base/converter_helper/unicode"
  56:./out/quex_scan **** #endif
  57:./out/quex_scan **** #include <quex/code_base/analyzer/headers>
  58:./out/quex_scan **** 
  59:./out/quex_scan **** #include "out/quex_scan-token_ids"
  60:./out/quex_scan **** #include "out/quex_scan-token"
  61:./out/quex_scan **** 
  62:./out/quex_scan **** QUEX_NAMESPACE_MAIN_OPEN 
  63:./out/quex_scan **** 
  64:./out/quex_scan **** enum {
  65:./out/quex_scan ****     QUEX_NAME(ModeID_PROGRAM) = 0
  66:./out/quex_scan **** };
  67:./out/quex_scan **** 
  68:./out/quex_scan ****         extern QUEX_NAME(Mode)  QUEX_NAME(PROGRAM);
  69:./out/quex_scan **** 
  70:./out/quex_scan **** 
  71:./out/quex_scan **** extern     __QUEX_TYPE_ANALYZER_RETURN_VALUE QUEX_NAME(PROGRAM_analyzer_function)(QUEX_TYPE_ANALYZE
  72:./out/quex_scan **** #ifdef QUEX_OPTION_RUNTIME_MODE_TRANSITION_CHECK
GAS LISTING /tmp/cc23nfB3.s 			page 24


  73:./out/quex_scan **** extern     bool QUEX_NAME(PROGRAM_has_base)(const QUEX_NAME(Mode)*);
  74:./out/quex_scan **** extern     bool QUEX_NAME(PROGRAM_has_entry_from)(const QUEX_NAME(Mode)*);
  75:./out/quex_scan **** extern     bool QUEX_NAME(PROGRAM_has_exit_to)(const QUEX_NAME(Mode)*);
  76:./out/quex_scan **** #endif
  77:./out/quex_scan **** 
  78:./out/quex_scan **** 
  79:./out/quex_scan **** 
  80:./out/quex_scan **** typedef struct QUEX_NAME(Memento_tag) {
  81:./out/quex_scan **** #   include <quex/code_base/analyzer/EngineMemento_body>
  82:./out/quex_scan **** 
  83:./out/quex_scan ****     QUEX_NAME(Memento_tag)()  {}  /* Con- and Destruction necessary to trigger */
  84:./out/quex_scan ****     ~QUEX_NAME(Memento_tag)() {}  /* con- and destruction of user members.     */
  85:./out/quex_scan **** 
  86:./out/quex_scan **** /* START: User's memento extentions ___________________________________________*/
  87:./out/quex_scan **** 
  88:./out/quex_scan **** /* END: _______________________________________________________________________*/
  89:./out/quex_scan **** } QUEX_NAME(Memento);
  90:./out/quex_scan **** 
  91:./out/quex_scan **** QUEX_NAMESPACE_MAIN_CLOSE 
  92:./out/quex_scan **** 
  93:./out/quex_scan **** #include <quex/code_base/temporary_macros_on>
  94:./out/quex_scan **** 
  95:./out/quex_scan **** QUEX_NAMESPACE_MAIN_OPEN 
  96:./out/quex_scan **** 
  97:./out/quex_scan **** class quex_scan {
  98:./out/quex_scan **** public:
  99:./out/quex_scan **** #   include <quex/code_base/analyzer/Engine_body>
 100:./out/quex_scan **** 
 101:./out/quex_scan ****     /* DISABLED */ quex_scan(const quex_scan&);
 102:./out/quex_scan **** public:
 103:./out/quex_scan ****     typedef QUEX_TYPE_TOKEN      token_type;
 104:./out/quex_scan ****     typedef QUEX_TYPE_TOKEN_ID   token_id_type;
 105:./out/quex_scan ****     typedef QUEX_TYPE_CHARACTER  char_type;
 106:./out/quex_scan **** 
 107:./out/quex_scan ****     quex_scan(QUEX_TYPE_CHARACTER* BufferMemoryBegin, size_t  BufferMemorySize,
 108:./out/quex_scan ****               QUEX_TYPE_CHARACTER* BufferEndOfContentP   = 0x0,
 109:./out/quex_scan ****               const char*          CharacterEncodingName = 0x0,
 110:./out/quex_scan ****               bool                 ByteOrderReversionF   = false);
 111:./out/quex_scan ****     quex_scan(const std::string&   Filename,       
 112:./out/quex_scan ****               const char*          CharacterEncodingName = 0x0,
 113:./out/quex_scan ****               bool                 ByteOrderReversionF   = false);
 114:./out/quex_scan ****     quex_scan(std::istream*        p_input_stream, 
 115:./out/quex_scan ****               const char*          CharacterEncodingName = 0x0,
 116:./out/quex_scan ****               bool                 ByteOrderReversionF   = false);
 117:./out/quex_scan **** #   if defined(__QUEX_OPTION_WCHAR_T)
 118:./out/quex_scan ****     quex_scan(std::wistream*       p_input_stream,
 119:./out/quex_scan ****               const char*          CharacterEncodingName = 0x0,
 120:./out/quex_scan ****               bool                 ByteOrderReversionF   = false);
 121:./out/quex_scan **** #   endif
 122:./out/quex_scan ****     quex_scan(std::FILE*           input_fh,       
 123:./out/quex_scan ****               const char*          CharacterEncodingName = 0x0,
 124:./out/quex_scan ****               bool                 ByteOrderReversionF   = false);
 125:./out/quex_scan **** #   if defined(__QUEX_OPTION_UNIT_TEST)
 126:./out/quex_scan ****     template <class UnderlyingStreamT>
 127:./out/quex_scan ****         quex_scan(quex::StrangeStream<UnderlyingStreamT>*  p_input_stream, 
 128:./out/quex_scan ****                   const char*                              CharacterEncodingName = 0x0,
 129:./out/quex_scan ****                   bool                                     ByteOrderReversionF   = false);
GAS LISTING /tmp/cc23nfB3.s 			page 25


 130:./out/quex_scan **** #   endif
 131:./out/quex_scan **** 
 132:./out/quex_scan ****     virtual ~quex_scan();
 133:./out/quex_scan **** 
 134:./out/quex_scan ****     /* Direct Access to Memory */
 135:./out/quex_scan ****     void*                 buffer_fill_region_append(void* ContentBegin, 
 136:./out/quex_scan ****                                                     void* ContentEnd);
 137:./out/quex_scan ****     void*                 buffer_fill_region_append_conversion(void* ContentBegin, 
 138:./out/quex_scan ****                                                                void* ContentEnd);
 139:./out/quex_scan ****     void*                 buffer_fill_region_append_conversion_direct(void* ContentBegin, 
 140:./out/quex_scan ****                                                                       void* ContentEnd);
 141:./out/quex_scan ****     void                  buffer_fill_region_prepare();
 142:./out/quex_scan ****     QUEX_TYPE_CHARACTER*  buffer_fill_region_begin();
 143:./out/quex_scan ****     QUEX_TYPE_CHARACTER*  buffer_fill_region_end();
 144:./out/quex_scan ****     size_t                buffer_fill_region_size();
 145:./out/quex_scan ****     void                  buffer_fill_region_finish(const size_t LoadedN);
 146:./out/quex_scan ****     void                  buffer_conversion_fill_region_prepare(); 
 147:./out/quex_scan ****     uint8_t*              buffer_conversion_fill_region_begin();
 148:./out/quex_scan ****     uint8_t*              buffer_conversion_fill_region_end();
 149:./out/quex_scan ****     size_t                buffer_conversion_fill_region_size();
 150:./out/quex_scan ****     void                  buffer_conversion_fill_region_finish(const size_t  ByteN);
 151:./out/quex_scan ****     QUEX_TYPE_CHARACTER*  buffer_lexeme_start_pointer_get();
 152:./out/quex_scan ****     void                  buffer_input_pointer_set(QUEX_TYPE_CHARACTER*);
 153:./out/quex_scan **** 
 154:./out/quex_scan ****     /* -- activate/deactivate byte order reversion (big-/little-endian)    */
 155:./out/quex_scan ****     bool                  byte_order_reversion();
 156:./out/quex_scan ****     void                  byte_order_reversion_set(bool Value);
 157:./out/quex_scan **** 
 158:./out/quex_scan ****     /* NOTE: All calls to receive functions for 'queue' and 'single'
 159:./out/quex_scan ****      *       are deliberately chosen to be incompatible! Thus, when 
 160:./out/quex_scan ****      *       the user switches the token passing policy, he must re-
 161:./out/quex_scan ****      *       think his receive mechanism.                                  */
 162:./out/quex_scan **** #   if defined(QUEX_OPTION_TOKEN_POLICY_QUEUE)
 163:./out/quex_scan ****     /* (1) Token Queue 
 164:./out/quex_scan ****      * 
 165:./out/quex_scan ****      *   When using a token queue, the pointer **must** be adapted.
 166:./out/quex_scan ****      *   Otherwise, very strange results may occur. Force the user to
 167:./out/quex_scan ****      *   provide a pointer that can be adapted by having him specify
 168:./out/quex_scan ****      *   the second argument--not only a return value.
 169:./out/quex_scan ****      *
 170:./out/quex_scan ****      *   Command line option:  --token-policy  queue                       */
 171:./out/quex_scan ****     void                receive(QUEX_TYPE_TOKEN**);
 172:./out/quex_scan **** #   elif defined(QUEX_OPTION_TOKEN_POLICY_SINGLE)  
 173:./out/quex_scan ****     /* (2) Single Token
 174:./out/quex_scan ****      * 
 175:./out/quex_scan ****      *   When there is only one single token as interface, than the
 176:./out/quex_scan ****      *   token id is returned. This enables a minimal setup were the
 177:./out/quex_scan ****      *   analyzer may only return a token id and does not work on tokens. 
 178:./out/quex_scan ****      *
 179:./out/quex_scan ****      *   Command line options: --token-policy  single                      */
 180:./out/quex_scan ****     QUEX_TYPE_TOKEN_ID  receive();
 181:./out/quex_scan **** #   else
 182:./out/quex_scan **** #       error "This section should never be compiled."
 183:./out/quex_scan **** #   endif
 184:./out/quex_scan **** 
 185:./out/quex_scan ****     // NOTE: A pointer to an object of the token queue/object is used in order to make
 186:./out/quex_scan ****     //       memory management more flexible. The token queue/token object is heavily
GAS LISTING /tmp/cc23nfB3.s 			page 26


 187:./out/quex_scan ****     //       used and it should be possible to put it somewhere in memory with other
 188:./out/quex_scan ****     //       heavily used data so that the cache can take advantage of data locality.
 189:./out/quex_scan ****     QUEX_TYPE_TOKEN*     token_p();
 190:./out/quex_scan **** 
 191:./out/quex_scan **** #   if defined(QUEX_OPTION_TOKEN_POLICY_SINGLE) 
 192:./out/quex_scan **** #      if defined(QUEX_OPTION_USER_MANAGED_TOKEN_MEMORY)
 193:./out/quex_scan ****        void              token_p_set(QUEX_TYPE_TOKEN*);
 194:./out/quex_scan ****        QUEX_TYPE_TOKEN*  token_p_switch(QUEX_TYPE_TOKEN*);
 195:./out/quex_scan **** #      endif
 196:./out/quex_scan **** #   else
 197:./out/quex_scan ****        bool              token_queue_is_empty();
 198:./out/quex_scan ****        void              token_queue_remainder_get(QUEX_TYPE_TOKEN** begin, QUEX_TYPE_TOKEN** end);
 199:./out/quex_scan **** #      if defined(QUEX_OPTION_USER_MANAGED_TOKEN_MEMORY)
 200:./out/quex_scan ****        void              token_queue_get(QUEX_TYPE_TOKEN** begin, size_t* size);
 201:./out/quex_scan ****        void              token_queue_set(QUEX_TYPE_TOKEN* Begin, size_t Size);
 202:./out/quex_scan ****        void              token_queue_switch(QUEX_TYPE_TOKEN** queue, 
 203:./out/quex_scan ****                                             size_t*           size); 
 204:./out/quex_scan **** #      endif
 205:./out/quex_scan **** #   endif
 206:./out/quex_scan **** 
 207:./out/quex_scan ****     //
 208:./out/quex_scan ****     // (*) Mode handling
 209:./out/quex_scan ****     //
 210:./out/quex_scan ****     //     -- modes: read access
 211:./out/quex_scan ****     QUEX_NAME(Mode)&      mode();
 212:./out/quex_scan ****     int                   mode_id() const;
 213:./out/quex_scan ****     const char*           mode_name() const;
 214:./out/quex_scan ****     //
 215:./out/quex_scan ****     //     -- modes: changing lexical analysis mode
 216:./out/quex_scan ****     void        set_mode_brutally(const int       LexerMode);
 217:./out/quex_scan ****     void        set_mode_brutally(const QUEX_NAME(Mode)& Mode);
 218:./out/quex_scan ****     //
 219:./out/quex_scan ****     void        operator<<(const int MODE_ID);               
 220:./out/quex_scan ****     void        operator<<(/* NOT const*/ QUEX_NAME(Mode)& Mode);  
 221:./out/quex_scan ****     //
 222:./out/quex_scan ****     void        pop_mode();
 223:./out/quex_scan ****     void        pop_drop_mode();
 224:./out/quex_scan ****     void        push_mode(QUEX_NAME(Mode)& new_mode);
 225:./out/quex_scan ****     //
 226:./out/quex_scan ****     void        enter_mode(/* NOT const*/ QUEX_NAME(Mode)& TargetMode);
 227:./out/quex_scan ****     //
 228:./out/quex_scan ****     //     -- map: mode id to mode and vice versa
 229:./out/quex_scan ****     QUEX_NAME(Mode)&   map_mode_id_to_mode(const int              ModeID);       
 230:./out/quex_scan ****     int                map_mode_to_mode_id(const QUEX_NAME(Mode)& Mode) const;
 231:./out/quex_scan **** 
 232:./out/quex_scan ****     // (*) Token sending happens only via 'self_send*(...)' macros
 233:./out/quex_scan ****     void        send(const QUEX_TYPE_TOKEN_ID TokenID)
 234:./out/quex_scan ****     { (void)TokenID; QUEX_ERROR_DEPRECATED("Member functions .send()", "macros: self_send*()"); }
 235:./out/quex_scan **** 
 236:./out/quex_scan **** #   ifdef  QUEX_OPTION_LINE_NUMBER_COUNTING
 237:./out/quex_scan ****     size_t      line_number() const             { return line_number_at_begin(); }
 238:./out/quex_scan ****     size_t      line_number_at_begin() const    { return counter._line_number_at_begin; }
 239:./out/quex_scan ****     size_t      line_number_at_end() const      { return counter._line_number_at_end; }
 240:./out/quex_scan ****     /*          line_number_set(...) defines the column number of the next pattern match. */
 241:./out/quex_scan ****     void        line_number_set(size_t Y)       { counter._line_number_at_end = Y; }
 242:./out/quex_scan **** #   endif
 243:./out/quex_scan **** #   ifdef  QUEX_OPTION_COLUMN_NUMBER_COUNTING
GAS LISTING /tmp/cc23nfB3.s 			page 27


 244:./out/quex_scan ****     size_t      column_number() const             { return column_number_at_begin(); }
 245:./out/quex_scan ****     size_t      column_number_at_begin() const    { return counter._column_number_at_begin; }
 246:./out/quex_scan ****     size_t      column_number_at_end() const      { return counter._column_number_at_end; }
 247:./out/quex_scan ****     /*          column_number_set(...) defines the column number of the next pattern match. */
 248:./out/quex_scan ****     void        column_number_set(size_t X)       { counter._column_number_at_end = X; }
 249:./out/quex_scan **** #   endif
 250:./out/quex_scan **** #   ifdef   QUEX_OPTION_INDENTATION_TRIGGER
 251:./out/quex_scan ****     size_t      indentation()                    { return counter._indentation; }
 252:./out/quex_scan **** #   endif
 253:./out/quex_scan **** 
 254:./out/quex_scan ****     // (*) Version information
 255:./out/quex_scan ****     const char* version() const; // created by quex for version/date information
 256:./out/quex_scan **** 
 257:./out/quex_scan ****     // (*) Tell/Seek/Move on basis of character index
 258:./out/quex_scan ****     size_t  tell();
 259:./out/quex_scan ****     void    seek(const size_t);
 260:./out/quex_scan ****     void    seek_forward(const size_t);
 261:./out/quex_scan ****     void    seek_backward(const size_t);
 262:./out/quex_scan **** 
 263:./out/quex_scan ****     void    undo();
 264:./out/quex_scan ****     void    undo(size_t DeltaN_Backward);
 265:./out/quex_scan **** 
 266:./out/quex_scan ****     void    move_forward(const size_t) { QUEX_ERROR_EXIT("'move_forward()' has been renamed to 'see
 267:./out/quex_scan ****     void    move_backward(const size_t){ QUEX_ERROR_EXIT("'move_backward()' has been renamed to 'se
 268:./out/quex_scan **** 
 269:./out/quex_scan **** public:
 270:./out/quex_scan **** 
 271:./out/quex_scan ****     void        set_callback_on_buffer_content_change(void (*callback)(QUEX_TYPE_CHARACTER*, 
 272:./out/quex_scan ****                                                                        QUEX_TYPE_CHARACTER*));
 273:./out/quex_scan **** 
 274:./out/quex_scan ****     template <class InputHandleT> void reset(InputHandleT*  input_handle, 
 275:./out/quex_scan ****                                              const char*    CharacterEncodingName = 0x0);
 276:./out/quex_scan ****     void                               reset(const char*    CharacterEncodingName = 0x0) 
 277:./out/quex_scan ****     { reset<void>((void*)0x0, CharacterEncodingName); }
 278:./out/quex_scan **** 
 279:./out/quex_scan ****     QUEX_TYPE_CHARACTER*               reset_buffer(QUEX_TYPE_CHARACTER* BufferMemoryBegin, 
 280:./out/quex_scan ****                                                     size_t               BufferMemorySize,
 281:./out/quex_scan ****                                                     QUEX_TYPE_CHARACTER* BufferEndOfContentP,  
 282:./out/quex_scan ****                                                     const char*          CharacterEncodingName = 0x
 283:./out/quex_scan **** 
 284:./out/quex_scan **** #   ifdef QUEX_OPTION_INCLUDE_STACK
 285:./out/quex_scan **** public:
 286:./out/quex_scan ****     template<class InputHandleT> void  include_push(QUEX_TYPE_CHARACTER*     InputName, 
 287:./out/quex_scan ****                                                     const QUEX_NAME(Mode)*   Mode            = 0x0,
 288:./out/quex_scan ****                                                     const char*              IANA_CodingName = 0x0)
 289:./out/quex_scan ****     template<class InputHandleT> void  include_push(InputHandleT*            sh, 
 290:./out/quex_scan ****                                                     const QUEX_NAME(Mode)*   Mode            = 0x0,
 291:./out/quex_scan ****                                                     const char*              IANA_CodingName = 0x0)
 292:./out/quex_scan ****     bool                               include_pop();
 293:./out/quex_scan **** 
 294:./out/quex_scan **** protected:
 295:./out/quex_scan ****     void                               include_stack_delete();
 296:./out/quex_scan **** 
 297:./out/quex_scan **** private:
 298:./out/quex_scan **** #   endif
 299:./out/quex_scan **** 
 300:./out/quex_scan **** public:
GAS LISTING /tmp/cc23nfB3.s 			page 28


 301:./out/quex_scan ****     void  print_this();
 302:./out/quex_scan **** 
 303:./out/quex_scan **** private:
 304:./out/quex_scan ****     // (*) Common core of all constructors ___________________________________________
 305:./out/quex_scan ****     TEMPLATE_IN(InputHandleT) friend void
 306:./out/quex_scan ****     QUEX_NAME(constructor_core)(QUEX_TYPE_ANALYZER*       me,
 307:./out/quex_scan ****                                 InputHandleT*             input_handle, 
 308:./out/quex_scan ****                                 const char*               CharacterEncodingName,
 309:./out/quex_scan ****                                 bool                      ByteOrderReversionF,
 310:./out/quex_scan ****                                 QUEX_TYPE_CHARACTER*      BufferMemory,    
 311:./out/quex_scan ****                                 size_t                    BufferMemorySize);
 312:./out/quex_scan **** 
 313:./out/quex_scan ****     template<class InputHandleT> friend QUEX_NAME(Memento)*
 314:./out/quex_scan ****     QUEX_NAME(memento_pack)(QUEX_TYPE_ANALYZER*, QUEX_TYPE_CHARACTER*, 
 315:./out/quex_scan ****                             InputHandleT**);
 316:./out/quex_scan ****     friend void
 317:./out/quex_scan ****     QUEX_NAME(memento_unpack)(QUEX_TYPE_ANALYZER*, QUEX_NAME(Memento)*);
 318:./out/quex_scan **** 
 319:./out/quex_scan ****     template<class InputHandleT> friend void
 320:./out/quex_scan ****     QUEX_NAME(reset)(QUEX_TYPE_ANALYZER*, InputHandleT*, const char*);
 321:./out/quex_scan **** 
 322:./out/quex_scan ****     /* (*) All Modes are Friends ___________________________________________________*/
 323:./out/quex_scan ****     friend     __QUEX_TYPE_ANALYZER_RETURN_VALUE QUEX_NAME(PROGRAM_analyzer_function)(QUEX_TYPE_ANA
 324:./out/quex_scan **** #ifdef QUEX_OPTION_RUNTIME_MODE_TRANSITION_CHECK
 325:./out/quex_scan ****     friend     bool QUEX_NAME(PROGRAM_has_base)(const QUEX_NAME(Mode)*);
 326:./out/quex_scan ****     friend     bool QUEX_NAME(PROGRAM_has_entry_from)(const QUEX_NAME(Mode)*);
 327:./out/quex_scan ****     friend     bool QUEX_NAME(PROGRAM_has_exit_to)(const QUEX_NAME(Mode)*);
 328:./out/quex_scan **** #endif
 329:./out/quex_scan **** 
 330:./out/quex_scan ****   
 331:./out/quex_scan **** 
 332:./out/quex_scan **** public:
 333:./out/quex_scan **** #define self  (*(QUEX_TYPE_DERIVED_ANALYZER*)this)
 334:./out/quex_scan **** /* START: User's class body extensions _____________________________________________*/
 335:./out/quex_scan **** 
 336:./out/quex_scan **** /* END: ____________________________________________________________________________*/
 337:./out/quex_scan **** #undef  self
 338:./out/quex_scan **** 
 339:./out/quex_scan **** public:
 340:./out/quex_scan ****     // At least warn those, who still use the old interface ...
 341:./out/quex_scan ****     void                  get_token() 
 342:./out/quex_scan ****     { QUEX_ERROR_DEPRECATED("Member functions .get_token()", ".receive(...)"); }
 343:./out/quex_scan ****     void                  get_token(QUEX_TYPE_TOKEN*   result_p)  { (void)result_p; get_token(); }
 344:./out/quex_scan ****     void                  get_token(QUEX_TYPE_TOKEN**  result_pp) { (void)result_pp; get_token(); }
 345:./out/quex_scan **** };
 346:./out/quex_scan **** 
 347:./out/quex_scan **** QUEX_NAMESPACE_MAIN_CLOSE
 348:./out/quex_scan **** #include <quex/code_base/temporary_macros_off>
 349:./out/quex_scan **** 
 350:./out/quex_scan **** #include <quex/code_base/temporary_macros_on>
 351:./out/quex_scan **** 
 352:./out/quex_scan **** QUEX_NAMESPACE_MAIN_OPEN
 353:./out/quex_scan **** 
 354:./out/quex_scan **** #ifndef __QUEX_OPTION_PLAIN_C
 355:./out/quex_scan **** TEMPLATE_IN(InputHandleT)
 356:./out/quex_scan **** #endif
 357:./out/quex_scan **** void
GAS LISTING /tmp/cc23nfB3.s 			page 29


 358:./out/quex_scan **** QUEX_NAME(constructor_core)(QUEX_TYPE_ANALYZER*    me,
 359:./out/quex_scan ****                             InputHandleT*          input_handle, 
 360:./out/quex_scan ****                             const char*            CharacterEncodingName,
 361:./out/quex_scan ****                             bool                   ByteOrderReversionF,
 362:./out/quex_scan ****                             QUEX_TYPE_CHARACTER*   BufferMemory,    
 363:./out/quex_scan ****                             size_t                 BufferMemorySize,
 364:./out/quex_scan ****                             QUEX_TYPE_CHARACTER*   BufferEndOfFileP)
 365:./out/quex_scan **** {
 366:./out/quex_scan ****     __quex_assert(QUEX_NAME(ModeID_PROGRAM) < 1);
 367:./out/quex_scan **** 
 368:./out/quex_scan ****      QUEX_NAME(PROGRAM).id   = QUEX_NAME(ModeID_PROGRAM);
 369:./out/quex_scan ****      QUEX_NAME(PROGRAM).name = "PROGRAM";
 370:./out/quex_scan ****      QUEX_NAME(PROGRAM).analyzer_function = QUEX_NAME(PROGRAM_analyzer_function);
 371:./out/quex_scan **** #    if      defined(QUEX_OPTION_INDENTATION_TRIGGER) \
 372:./out/quex_scan ****         && ! defined(QUEX_OPTION_INDENTATION_DEFAULT_HANDLER)
 373:./out/quex_scan ****      QUEX_NAME(PROGRAM).on_indentation = QUEX_NAME(Mode_on_indentation_null_function);
 374:./out/quex_scan **** #    endif
 375:./out/quex_scan ****      QUEX_NAME(PROGRAM).on_entry       = QUEX_NAME(Mode_on_entry_exit_null_function);
 376:./out/quex_scan ****      QUEX_NAME(PROGRAM).on_exit        = QUEX_NAME(Mode_on_entry_exit_null_function);
 377:./out/quex_scan **** #    if      defined(QUEX_OPTION_RUNTIME_MODE_TRANSITION_CHECK)
 378:./out/quex_scan ****      QUEX_NAME(PROGRAM).has_base       = QUEX_NAME(PROGRAM_has_base);
 379:./out/quex_scan ****      QUEX_NAME(PROGRAM).has_entry_from = QUEX_NAME(PROGRAM_has_entry_from);
 380:./out/quex_scan ****      QUEX_NAME(PROGRAM).has_exit_to    = QUEX_NAME(PROGRAM_has_exit_to);
 381:./out/quex_scan **** #    endif
 382:./out/quex_scan ****         me->mode_db[QUEX_NAME(ModeID_PROGRAM)] = &(QUEX_NAME(PROGRAM));
 383:./out/quex_scan **** 
 384:./out/quex_scan **** 
 385:./out/quex_scan ****     QUEX_NAME(construct_basic)(me, input_handle,
 386:./out/quex_scan ****                                BufferMemory, BufferMemorySize, BufferEndOfFileP,
 387:./out/quex_scan ****                                CharacterEncodingName, 
 388:./out/quex_scan ****                                QUEX_SETTING_TRANSLATION_BUFFER_SIZE,
 389:./out/quex_scan ****                                ByteOrderReversionF);
 390:./out/quex_scan **** 
 391:./out/quex_scan ****     me->__current_mode_p = 0x0; /* REQUIRED, for mode transition check */
 392:./out/quex_scan ****     QUEX_NAME(set_mode_brutally_by_id)(me, __QUEX_SETTING_INITIAL_LEXER_MODE_ID);
 393:./out/quex_scan **** 
 394:./out/quex_scan **** #define self  (*(QUEX_TYPE_DERIVED_ANALYZER*)me)
 395:./out/quex_scan **** /* START: User's constructor extensions _______________________________________*/
 396:./out/quex_scan **** 
 397:./out/quex_scan **** /* END: _______________________________________________________________________*/
 398:./out/quex_scan **** #undef self
 399:./out/quex_scan **** }
 400:./out/quex_scan **** 
 401:./out/quex_scan **** 
 402:./out/quex_scan **** #ifdef QUEX_OPTION_INCLUDE_STACK
 403:./out/quex_scan **** 
 404:./out/quex_scan **** #ifndef __QUEX_OPTION_PLAIN_C
 405:./out/quex_scan **** TEMPLATE_IN(InputHandleT)
 406:./out/quex_scan **** #endif
 407:./out/quex_scan **** QUEX_NAME(Memento)*
 408:./out/quex_scan **** QUEX_NAME(memento_pack)(QUEX_TYPE_ANALYZER*   me, 
 409:./out/quex_scan ****                         QUEX_TYPE_CHARACTER*  InputName, 
 410:./out/quex_scan ****                         InputHandleT**        input_handle)
 411:./out/quex_scan **** {
 412:./out/quex_scan **** #   define self  (*me)
 413:./out/quex_scan ****     QUEX_NAME(Memento)* memento = QUEX_NAME(MemoryManager_Memento_allocate)();
 414:./out/quex_scan ****     
GAS LISTING /tmp/cc23nfB3.s 			page 30


 415:./out/quex_scan ****     (void)InputName;
 416:./out/quex_scan ****     (void)input_handle;
 417:./out/quex_scan **** 
 418:./out/quex_scan **** #   ifndef __QUEX_OPTION_PLAIN_C
 419:./out/quex_scan ****     /* Use placement 'new' for explicit call of constructor. 
 420:./out/quex_scan ****      * Necessary in C++: Trigger call to constructor for user defined members.   */
 421:./out/quex_scan ****     new ((void*)memento) QUEX_NAME(Memento);
 422:./out/quex_scan **** #   endif
 423:./out/quex_scan **** 
 424:./out/quex_scan ****     memento->_parent_memento                  = self._parent_memento;
 425:./out/quex_scan ****     memento->buffer                           = self.buffer;
 426:./out/quex_scan ****     memento->__current_mode_p                 = self.__current_mode_p; 
 427:./out/quex_scan ****     memento->current_analyzer_function        = self.current_analyzer_function;
 428:./out/quex_scan **** #   if    defined(QUEX_OPTION_AUTOMATIC_ANALYSIS_CONTINUATION_ON_MODE_CHANGE) \
 429:./out/quex_scan ****        || defined(QUEX_OPTION_ASSERTS)
 430:./out/quex_scan ****     memento->DEBUG_analyzer_function_at_entry = self.DEBUG_analyzer_function_at_entry;
 431:./out/quex_scan **** #   endif
 432:./out/quex_scan **** #   ifdef __QUEX_OPTION_COUNTER
 433:./out/quex_scan ****     memento->counter                          = self.counter;
 434:./out/quex_scan **** #   endif
 435:./out/quex_scan **** #   ifdef QUEX_OPTION_STRING_ACCUMULATOR
 436:./out/quex_scan ****     memento->accumulator                      = self.accumulator;
 437:./out/quex_scan **** #   endif
 438:./out/quex_scan ****     memento->__file_handle_allocated_by_constructor = self.__file_handle_allocated_by_constructor;
 439:./out/quex_scan **** 
 440:./out/quex_scan ****     /* Deriberately not subject to include handling:
 441:./out/quex_scan ****      *    -- Mode stack.
 442:./out/quex_scan ****      *    -- Token and token queues.
 443:./out/quex_scan ****      *    -- Post categorizer.                                                 */
 444:./out/quex_scan **** 
 445:./out/quex_scan **** #   ifdef QUEX_OPTION_TOKEN_POLICY_QUEUE
 446:./out/quex_scan ****     /* QuexTokenQueueRemainder_restore(&memento->token_queue_remainder, &self._token_queue); */
 447:./out/quex_scan **** #   endif
 448:./out/quex_scan **** 
 449:./out/quex_scan **** /* START: User's memento 'pack' _______________________________________________*/
 450:./out/quex_scan **** 
 451:./out/quex_scan **** /* END: _______________________________________________________________________*/
 452:./out/quex_scan **** 
 453:./out/quex_scan ****     return memento;
 454:./out/quex_scan **** #   undef self
 455:./out/quex_scan **** }
 456:./out/quex_scan **** 
 457:./out/quex_scan **** #ifndef __QUEX_OPTION_PLAIN_C
 458:./out/quex_scan **** QUEX_INLINE 
 459:./out/quex_scan **** #endif
 460:./out/quex_scan **** void
 461:./out/quex_scan **** QUEX_NAME(memento_unpack)(QUEX_TYPE_ANALYZER*  me, 
 462:./out/quex_scan ****                           QUEX_NAME(Memento)*  memento)
 463:./out/quex_scan **** {
 464:./out/quex_scan **** #   define self  (*me)
 465:./out/quex_scan ****     self._parent_memento                  = memento->_parent_memento;
 466:./out/quex_scan ****     self.buffer                           = memento->buffer;
 247              		.loc 6 466 0
 248 000f 8955E4   		movl	%edx, -28(%ebp)
 249 0012 EB44     		jmp	.L17
 250              	.LVL9:
 251              	.L18:
GAS LISTING /tmp/cc23nfB3.s 			page 31


 252              	.LBE352:
 253              	.LBE351:
 254              		.loc 5 114 0
 255 0014 83EC0C   		subl	$12, %esp
 256 0017 52       		pushl	%edx
 257 0018 8955E0   		movl	%edx, -32(%ebp)
 258              		.cfi_escape 0x2e,0x10
 259 001b E8FCFFFF 		call	_ZN4quex25quex_scan_Buffer_destructEPNS_16quex_scan_BufferE
 259      FF
 115:/home/fschaef/prj/quex/trunk/quex/code_base/analyzer/member/include-stack.i **** 
 116:/home/fschaef/prj/quex/trunk/quex/code_base/analyzer/member/include-stack.i ****         /*    (2) Current mode will be determined by unfreeze/copy back.                  */
 117:/home/fschaef/prj/quex/trunk/quex/code_base/analyzer/member/include-stack.i ****         /*        now leave alone:
 118:/home/fschaef/prj/quex/trunk/quex/code_base/analyzer/member/include-stack.i ****          *               __current_mode_p 
 119:/home/fschaef/prj/quex/trunk/quex/code_base/analyzer/member/include-stack.i ****          *               current_analyzer_function                                       
 120:/home/fschaef/prj/quex/trunk/quex/code_base/analyzer/member/include-stack.i ****          *               DEBUG_analyzer_function_at_entry                                 */
 121:/home/fschaef/prj/quex/trunk/quex/code_base/analyzer/member/include-stack.i **** 
 122:/home/fschaef/prj/quex/trunk/quex/code_base/analyzer/member/include-stack.i ****         /*    (*) Mode stack is not subject to include handling.                          */
 123:/home/fschaef/prj/quex/trunk/quex/code_base/analyzer/member/include-stack.i ****         /*    (*) Tokens and token queues are not subject to include handling.            */
 124:/home/fschaef/prj/quex/trunk/quex/code_base/analyzer/member/include-stack.i **** 
 125:/home/fschaef/prj/quex/trunk/quex/code_base/analyzer/member/include-stack.i ****         /*    (3) Counters will be determined by unfreeze/copy back.                      */
 126:/home/fschaef/prj/quex/trunk/quex/code_base/analyzer/member/include-stack.i ****         /*    (4) Allocated accumulator content needs to be freed, previous content is      
 127:/home/fschaef/prj/quex/trunk/quex/code_base/analyzer/member/include-stack.i ****          *        restored by unfreeze/copy back.                                         */
 128:/home/fschaef/prj/quex/trunk/quex/code_base/analyzer/member/include-stack.i **** #       ifdef QUEX_OPTION_STRING_ACCUMULATOR
 129:/home/fschaef/prj/quex/trunk/quex/code_base/analyzer/member/include-stack.i ****         QUEX_NAME(Accumulator_destruct)(&me->accumulator);
 130:/home/fschaef/prj/quex/trunk/quex/code_base/analyzer/member/include-stack.i **** #       endif
 131:/home/fschaef/prj/quex/trunk/quex/code_base/analyzer/member/include-stack.i ****         /*    (*) Post categorizer is not subject to include handling.                    */
 132:/home/fschaef/prj/quex/trunk/quex/code_base/analyzer/member/include-stack.i ****         /*    (5) File handle allocated by **initial constructor** reset by unfreeze.     */
 133:/home/fschaef/prj/quex/trunk/quex/code_base/analyzer/member/include-stack.i **** 
 134:/home/fschaef/prj/quex/trunk/quex/code_base/analyzer/member/include-stack.i ****         /*    (6) Keep track of 'who's your daddy?' handled by unfreeze/copy back.        */
 135:/home/fschaef/prj/quex/trunk/quex/code_base/analyzer/member/include-stack.i **** 
 136:/home/fschaef/prj/quex/trunk/quex/code_base/analyzer/member/include-stack.i ****         /* (B) Unfreezing / Copy Back of content that was stored upon inclusion.          */
 137:/home/fschaef/prj/quex/trunk/quex/code_base/analyzer/member/include-stack.i ****         QUEX_NAME(memento_unpack)(me, me->_parent_memento);
 260              		.loc 5 137 0
 261 0020 8B437C   		movl	124(%ebx), %eax
 262              	.LBB357:
 263              	.LBB356:
 264              		.loc 6 466 0
 265 0023 8B7DE4   		movl	-28(%ebp), %edi
 465:./out/quex_scan ****     self._parent_memento                  = memento->_parent_memento;
 266              		.loc 6 465 0
 267 0026 8B4838   		movl	56(%eax), %ecx
 268              		.loc 6 466 0
 269 0029 89C6     		movl	%eax, %esi
 465:./out/quex_scan ****     self._parent_memento                  = memento->_parent_memento;
 270              		.loc 6 465 0
 271 002b 894B7C   		movl	%ecx, 124(%ebx)
 272              		.loc 6 466 0
 273 002e B90C0000 		movl	$12, %ecx
 273      00
 274 0033 F3A5     		rep movsl
 467:./out/quex_scan ****     self.__current_mode_p                 = memento->__current_mode_p; 
 275              		.loc 6 467 0
 276 0035 8B4830   		movl	48(%eax), %ecx
 277 0038 894B4C   		movl	%ecx, 76(%ebx)
 468:./out/quex_scan ****     self.current_analyzer_function        = memento->current_analyzer_function;
 278              		.loc 6 468 0
 279 003b 8B4834   		movl	52(%eax), %ecx
GAS LISTING /tmp/cc23nfB3.s 			page 32


 280 003e 894B48   		movl	%ecx, 72(%ebx)
 469:./out/quex_scan **** #   if    defined(QUEX_OPTION_AUTOMATIC_ANALYSIS_CONTINUATION_ON_MODE_CHANGE) \
 470:./out/quex_scan ****        || defined(QUEX_OPTION_ASSERTS)
 471:./out/quex_scan ****     self.DEBUG_analyzer_function_at_entry = memento->DEBUG_analyzer_function_at_entry;
 472:./out/quex_scan **** #   endif
 473:./out/quex_scan **** #   ifdef __QUEX_OPTION_COUNTER
 474:./out/quex_scan ****     self.counter                          = memento->counter;
 475:./out/quex_scan **** #   endif
 476:./out/quex_scan **** #   ifdef QUEX_OPTION_STRING_ACCUMULATOR
 477:./out/quex_scan ****     self.accumulator                      = memento->accumulator;
 478:./out/quex_scan **** #   endif
 479:./out/quex_scan ****     self.__file_handle_allocated_by_constructor = memento->__file_handle_allocated_by_constructor;
 281              		.loc 6 479 0
 282 0041 8B483C   		movl	60(%eax), %ecx
 283 0044 898B8000 		movl	%ecx, 128(%ebx)
 283      0000
 284              	.LBB353:
 285              	.LBB354:
 286              	.LBB355:
 287              		.loc 3 35 0
 288 004a 890424   		movl	%eax, (%esp)
 289 004d E8FCFFFF 		call	free
 289      FF
 290 0052 8B55E0   		movl	-32(%ebp), %edx
 291 0055 83C410   		addl	$16, %esp
 292              	.L17:
 293              	.LBE355:
 294              	.LBE354:
 295              	.LBE353:
 296              	.LBE356:
 297              	.LBE357:
 298              	.LBE350:
 299              	.LBE349:
 138:/home/fschaef/prj/quex/trunk/quex/code_base/analyzer/member/include-stack.i **** 
 139:/home/fschaef/prj/quex/trunk/quex/code_base/analyzer/member/include-stack.i ****         /* Return to including file succesful */
 140:/home/fschaef/prj/quex/trunk/quex/code_base/analyzer/member/include-stack.i ****         return true;
 141:/home/fschaef/prj/quex/trunk/quex/code_base/analyzer/member/include-stack.i ****     }
 142:/home/fschaef/prj/quex/trunk/quex/code_base/analyzer/member/include-stack.i **** 
 143:/home/fschaef/prj/quex/trunk/quex/code_base/analyzer/member/include-stack.i ****     QUEX_INLINE void
 144:/home/fschaef/prj/quex/trunk/quex/code_base/analyzer/member/include-stack.i ****     QUEX_NAME(include_stack_delete)(QUEX_TYPE_ANALYZER* me) 
 145:/home/fschaef/prj/quex/trunk/quex/code_base/analyzer/member/include-stack.i ****     {
 146:/home/fschaef/prj/quex/trunk/quex/code_base/analyzer/member/include-stack.i ****         while( me->_parent_memento != 0x0 ) {
 300              		.loc 5 146 0
 301 0058 837B7C00 		cmpl	$0, 124(%ebx)
 302 005c 75B6     		jne	.L18
 303              	.LBE348:
 304              	.LBE347:
 305              		.file 7 "/home/fschaef/prj/quex/trunk/quex/code_base/analyzer/member/basic.i"
   1:/home/fschaef/prj/quex/trunk/quex/code_base/analyzer/member/basic.i **** /* -*- C++ -*- vim: set syntax=cpp: */
   2:/home/fschaef/prj/quex/trunk/quex/code_base/analyzer/member/basic.i **** #ifndef __QUEX_INCLUDE_GUARD__ANALYZER__MEMBER__BASIC_I
   3:/home/fschaef/prj/quex/trunk/quex/code_base/analyzer/member/basic.i **** #define __QUEX_INCLUDE_GUARD__ANALYZER__MEMBER__BASIC_I
   4:/home/fschaef/prj/quex/trunk/quex/code_base/analyzer/member/basic.i **** 
   5:/home/fschaef/prj/quex/trunk/quex/code_base/analyzer/member/basic.i **** #include    <quex/code_base/definitions>
   6:/home/fschaef/prj/quex/trunk/quex/code_base/analyzer/member/basic.i **** #include    <quex/code_base/buffer/Buffer>
   7:/home/fschaef/prj/quex/trunk/quex/code_base/analyzer/member/basic.i **** #include    <quex/code_base/buffer/BufferFiller>
   8:/home/fschaef/prj/quex/trunk/quex/code_base/analyzer/member/basic.i **** #include    <quex/code_base/buffer/asserts>
   9:/home/fschaef/prj/quex/trunk/quex/code_base/analyzer/member/basic.i **** #ifdef      QUEX_OPTION_INCLUDE_STACK
GAS LISTING /tmp/cc23nfB3.s 			page 33


  10:/home/fschaef/prj/quex/trunk/quex/code_base/analyzer/member/basic.i **** #   include <quex/code_base/analyzer/member/include-stack>
  11:/home/fschaef/prj/quex/trunk/quex/code_base/analyzer/member/basic.i **** #endif
  12:/home/fschaef/prj/quex/trunk/quex/code_base/analyzer/member/basic.i **** 
  13:/home/fschaef/prj/quex/trunk/quex/code_base/analyzer/member/basic.i **** #include <quex/code_base/temporary_macros_on>
  14:/home/fschaef/prj/quex/trunk/quex/code_base/analyzer/member/basic.i **** 
  15:/home/fschaef/prj/quex/trunk/quex/code_base/analyzer/member/basic.i **** QUEX_NAMESPACE_MAIN_OPEN
  16:/home/fschaef/prj/quex/trunk/quex/code_base/analyzer/member/basic.i ****     struct QUEX_NAME(Mode_tag);
  17:/home/fschaef/prj/quex/trunk/quex/code_base/analyzer/member/basic.i **** 
  18:/home/fschaef/prj/quex/trunk/quex/code_base/analyzer/member/basic.i ****     TEMPLATE_IN(InputHandleT) void
  19:/home/fschaef/prj/quex/trunk/quex/code_base/analyzer/member/basic.i ****     QUEX_NAME(construct_basic)(QUEX_TYPE_ANALYZER*     me,
  20:/home/fschaef/prj/quex/trunk/quex/code_base/analyzer/member/basic.i ****                                InputHandleT*           input_handle,
  21:/home/fschaef/prj/quex/trunk/quex/code_base/analyzer/member/basic.i ****                                QUEX_TYPE_CHARACTER*    BufferMemory,
  22:/home/fschaef/prj/quex/trunk/quex/code_base/analyzer/member/basic.i ****                                const size_t            BufferMemorySize,
  23:/home/fschaef/prj/quex/trunk/quex/code_base/analyzer/member/basic.i ****                                QUEX_TYPE_CHARACTER*    EndOfFileP,
  24:/home/fschaef/prj/quex/trunk/quex/code_base/analyzer/member/basic.i ****                                const char*             CharacterEncodingName, 
  25:/home/fschaef/prj/quex/trunk/quex/code_base/analyzer/member/basic.i ****                                const size_t            TranslationBufferMemorySize,
  26:/home/fschaef/prj/quex/trunk/quex/code_base/analyzer/member/basic.i ****                                bool                    ByteOrderReversionF)
  27:/home/fschaef/prj/quex/trunk/quex/code_base/analyzer/member/basic.i ****     /* Initialization of Components of the Lexical Analyzer Engine ________________________
  28:/home/fschaef/prj/quex/trunk/quex/code_base/analyzer/member/basic.i ****      *
  29:/home/fschaef/prj/quex/trunk/quex/code_base/analyzer/member/basic.i ****      * input_handle == 0x0 means that there is no stream/file to read from. Instead, the 
  30:/home/fschaef/prj/quex/trunk/quex/code_base/analyzer/member/basic.i ****      *                     user intends to perform the lexical analysis directly on plain
  31:/home/fschaef/prj/quex/trunk/quex/code_base/analyzer/member/basic.i ****      *                     memory. In this case, the user needs to call the following function
  32:/home/fschaef/prj/quex/trunk/quex/code_base/analyzer/member/basic.i ****      *                     by hand in order to setup the memory:
  33:/home/fschaef/prj/quex/trunk/quex/code_base/analyzer/member/basic.i ****      *
  34:/home/fschaef/prj/quex/trunk/quex/code_base/analyzer/member/basic.i ****      *                     QuexBufferMemory_construct(analyse->buffer._memory, 
  35:/home/fschaef/prj/quex/trunk/quex/code_base/analyzer/member/basic.i ****      *                                                (uint8_t*)MyMemoryP, MyMemorySize); 
  36:/home/fschaef/prj/quex/trunk/quex/code_base/analyzer/member/basic.i ****      */
  37:/home/fschaef/prj/quex/trunk/quex/code_base/analyzer/member/basic.i ****     {
  38:/home/fschaef/prj/quex/trunk/quex/code_base/analyzer/member/basic.i **** #       if      defined(QUEX_OPTION_ASSERTS) \
  39:/home/fschaef/prj/quex/trunk/quex/code_base/analyzer/member/basic.i ****            && ! defined(QUEX_OPTION_ASSERTS_WARNING_MESSAGE_DISABLED)
  40:/home/fschaef/prj/quex/trunk/quex/code_base/analyzer/member/basic.i ****         __QUEX_STD_printf(__QUEX_MESSAGE_ASSERTS_INFO);
  41:/home/fschaef/prj/quex/trunk/quex/code_base/analyzer/member/basic.i **** #       endif
  42:/home/fschaef/prj/quex/trunk/quex/code_base/analyzer/member/basic.i ****        
  43:/home/fschaef/prj/quex/trunk/quex/code_base/analyzer/member/basic.i **** #       if      defined(QUEX_OPTION_ASSERTS) 
  44:/home/fschaef/prj/quex/trunk/quex/code_base/analyzer/member/basic.i ****         if( QUEX_SETTING_BUFFER_LIMIT_CODE == QUEX_SETTING_PATH_TERMINATION_CODE ) {
  45:/home/fschaef/prj/quex/trunk/quex/code_base/analyzer/member/basic.i ****             QUEX_ERROR_EXIT("Path termination code (PTC) and buffer limit code (BLC) must be differ
  46:/home/fschaef/prj/quex/trunk/quex/code_base/analyzer/member/basic.i ****         }
  47:/home/fschaef/prj/quex/trunk/quex/code_base/analyzer/member/basic.i **** #       endif
  48:/home/fschaef/prj/quex/trunk/quex/code_base/analyzer/member/basic.i **** 
  49:/home/fschaef/prj/quex/trunk/quex/code_base/analyzer/member/basic.i **** #       if defined(QUEX_OPTION_TOKEN_POLICY_QUEUE)
  50:/home/fschaef/prj/quex/trunk/quex/code_base/analyzer/member/basic.i **** #           if defined(QUEX_OPTION_USER_MANAGED_TOKEN_MEMORY)
  51:/home/fschaef/prj/quex/trunk/quex/code_base/analyzer/member/basic.i ****             /* Assume that the user will pass us a constructed token queue */
  52:/home/fschaef/prj/quex/trunk/quex/code_base/analyzer/member/basic.i ****             QUEX_NAME(TokenQueue_init)(&me->_token_queue, 0, 0x0);
  53:/home/fschaef/prj/quex/trunk/quex/code_base/analyzer/member/basic.i **** #           else
  54:/home/fschaef/prj/quex/trunk/quex/code_base/analyzer/member/basic.i ****             QUEX_NAME(TokenQueue_construct)(&me->_token_queue, 
  55:/home/fschaef/prj/quex/trunk/quex/code_base/analyzer/member/basic.i ****                                             (QUEX_TYPE_TOKEN*)&me->__memory_token_queue,
  56:/home/fschaef/prj/quex/trunk/quex/code_base/analyzer/member/basic.i ****                                             QUEX_SETTING_TOKEN_QUEUE_SIZE);
  57:/home/fschaef/prj/quex/trunk/quex/code_base/analyzer/member/basic.i **** #           endif
  58:/home/fschaef/prj/quex/trunk/quex/code_base/analyzer/member/basic.i **** #       else
  59:/home/fschaef/prj/quex/trunk/quex/code_base/analyzer/member/basic.i **** #           if defined(QUEX_OPTION_USER_MANAGED_TOKEN_MEMORY)
  60:/home/fschaef/prj/quex/trunk/quex/code_base/analyzer/member/basic.i ****             /* Assume that the user will pass us a constructed token */
  61:/home/fschaef/prj/quex/trunk/quex/code_base/analyzer/member/basic.i ****             me->token = 0x0;     
  62:/home/fschaef/prj/quex/trunk/quex/code_base/analyzer/member/basic.i **** #           else
  63:/home/fschaef/prj/quex/trunk/quex/code_base/analyzer/member/basic.i ****             me->token = &me->__memory_token;     
  64:/home/fschaef/prj/quex/trunk/quex/code_base/analyzer/member/basic.i **** #              ifdef __QUEX_OPTION_PLAIN_C
  65:/home/fschaef/prj/quex/trunk/quex/code_base/analyzer/member/basic.i ****                QUEX_NAME_TOKEN(construct)(me->token);
  66:/home/fschaef/prj/quex/trunk/quex/code_base/analyzer/member/basic.i **** #              endif
GAS LISTING /tmp/cc23nfB3.s 			page 34


  67:/home/fschaef/prj/quex/trunk/quex/code_base/analyzer/member/basic.i **** #           endif
  68:/home/fschaef/prj/quex/trunk/quex/code_base/analyzer/member/basic.i **** #       endif
  69:/home/fschaef/prj/quex/trunk/quex/code_base/analyzer/member/basic.i ****        
  70:/home/fschaef/prj/quex/trunk/quex/code_base/analyzer/member/basic.i **** #       ifdef __QUEX_OPTION_COUNTER
  71:/home/fschaef/prj/quex/trunk/quex/code_base/analyzer/member/basic.i ****         QUEX_NAME(Counter_construct)(&me->counter);
  72:/home/fschaef/prj/quex/trunk/quex/code_base/analyzer/member/basic.i **** #       endif
  73:/home/fschaef/prj/quex/trunk/quex/code_base/analyzer/member/basic.i **** 
  74:/home/fschaef/prj/quex/trunk/quex/code_base/analyzer/member/basic.i **** #       ifdef QUEX_OPTION_STRING_ACCUMULATOR
  75:/home/fschaef/prj/quex/trunk/quex/code_base/analyzer/member/basic.i ****         QUEX_NAME(Accumulator_construct)(&me->accumulator, (QUEX_TYPE_ANALYZER*)me);
  76:/home/fschaef/prj/quex/trunk/quex/code_base/analyzer/member/basic.i **** #       endif
  77:/home/fschaef/prj/quex/trunk/quex/code_base/analyzer/member/basic.i ****        
  78:/home/fschaef/prj/quex/trunk/quex/code_base/analyzer/member/basic.i **** #       ifdef  QUEX_OPTION_INCLUDE_STACK
  79:/home/fschaef/prj/quex/trunk/quex/code_base/analyzer/member/basic.i ****         me->_parent_memento = 0x0;
  80:/home/fschaef/prj/quex/trunk/quex/code_base/analyzer/member/basic.i **** #       endif
  81:/home/fschaef/prj/quex/trunk/quex/code_base/analyzer/member/basic.i **** 
  82:/home/fschaef/prj/quex/trunk/quex/code_base/analyzer/member/basic.i **** #       ifdef QUEX_OPTION_POST_CATEGORIZER
  83:/home/fschaef/prj/quex/trunk/quex/code_base/analyzer/member/basic.i ****         QUEX_NAME(PostCategorizer_construct)(&me->post_categorizer);
  84:/home/fschaef/prj/quex/trunk/quex/code_base/analyzer/member/basic.i **** #       endif
  85:/home/fschaef/prj/quex/trunk/quex/code_base/analyzer/member/basic.i **** 
  86:/home/fschaef/prj/quex/trunk/quex/code_base/analyzer/member/basic.i ****         me->_mode_stack.end        = me->_mode_stack.begin;
  87:/home/fschaef/prj/quex/trunk/quex/code_base/analyzer/member/basic.i ****         me->_mode_stack.memory_end = me->_mode_stack.begin + QUEX_SETTING_MODE_STACK_SIZE;
  88:/home/fschaef/prj/quex/trunk/quex/code_base/analyzer/member/basic.i **** 
  89:/home/fschaef/prj/quex/trunk/quex/code_base/analyzer/member/basic.i **** #       ifdef QUEX_OPTION_ASSERTS
  90:/home/fschaef/prj/quex/trunk/quex/code_base/analyzer/member/basic.i ****         /* Initialize everything to 0xFF which is most probably causing an error
  91:/home/fschaef/prj/quex/trunk/quex/code_base/analyzer/member/basic.i ****          * if a member variable is not initialized before it is used.             */
  92:/home/fschaef/prj/quex/trunk/quex/code_base/analyzer/member/basic.i ****         __QUEX_STD_memset((uint8_t*)&me->buffer, 0xFF, sizeof(me->buffer));
  93:/home/fschaef/prj/quex/trunk/quex/code_base/analyzer/member/basic.i **** #       endif
  94:/home/fschaef/prj/quex/trunk/quex/code_base/analyzer/member/basic.i ****         
  95:/home/fschaef/prj/quex/trunk/quex/code_base/analyzer/member/basic.i ****         QUEX_NAME(Buffer_construct)(&me->buffer, input_handle, 
  96:/home/fschaef/prj/quex/trunk/quex/code_base/analyzer/member/basic.i ****                                     BufferMemory, BufferMemorySize, EndOfFileP,
  97:/home/fschaef/prj/quex/trunk/quex/code_base/analyzer/member/basic.i ****                                     CharacterEncodingName, TranslationBufferMemorySize,
  98:/home/fschaef/prj/quex/trunk/quex/code_base/analyzer/member/basic.i ****                                     ByteOrderReversionF);
  99:/home/fschaef/prj/quex/trunk/quex/code_base/analyzer/member/basic.i **** 
 100:/home/fschaef/prj/quex/trunk/quex/code_base/analyzer/member/basic.i ****         if( input_handle == 0x0 ) {
 101:/home/fschaef/prj/quex/trunk/quex/code_base/analyzer/member/basic.i ****             /* TWO CASES:
 102:/home/fschaef/prj/quex/trunk/quex/code_base/analyzer/member/basic.i ****              * (1) The user provides a buffer memory: --> assume it is filled to the end.
 103:/home/fschaef/prj/quex/trunk/quex/code_base/analyzer/member/basic.i ****              * (2) The user does not provide memory:  --> the memory IS empty.             */
 104:/home/fschaef/prj/quex/trunk/quex/code_base/analyzer/member/basic.i ****             if( BufferMemory == 0x0 ) {
 105:/home/fschaef/prj/quex/trunk/quex/code_base/analyzer/member/basic.i ****                 /* 'buffer._memory._front' has been set at this point in time.             */
 106:/home/fschaef/prj/quex/trunk/quex/code_base/analyzer/member/basic.i ****                 QUEX_NAME(Buffer_end_of_file_set)(&me->buffer, me->buffer._memory._front + 1);
 107:/home/fschaef/prj/quex/trunk/quex/code_base/analyzer/member/basic.i ****             }
 108:/home/fschaef/prj/quex/trunk/quex/code_base/analyzer/member/basic.i ****             /* When working on plain memory, the '_end_of_file_p' must be set to indicate
 109:/home/fschaef/prj/quex/trunk/quex/code_base/analyzer/member/basic.i ****              * the end of the content.                                                     */
 110:/home/fschaef/prj/quex/trunk/quex/code_base/analyzer/member/basic.i ****             __quex_assert(me->buffer._memory._end_of_file_p >  me->buffer._memory._front);
 111:/home/fschaef/prj/quex/trunk/quex/code_base/analyzer/member/basic.i ****             __quex_assert(me->buffer._memory._end_of_file_p <= me->buffer._memory._back);
 112:/home/fschaef/prj/quex/trunk/quex/code_base/analyzer/member/basic.i ****         }
 113:/home/fschaef/prj/quex/trunk/quex/code_base/analyzer/member/basic.i **** 
 114:/home/fschaef/prj/quex/trunk/quex/code_base/analyzer/member/basic.i ****         me->__file_handle_allocated_by_constructor = 0x0;
 115:/home/fschaef/prj/quex/trunk/quex/code_base/analyzer/member/basic.i ****     }
 116:/home/fschaef/prj/quex/trunk/quex/code_base/analyzer/member/basic.i **** 
 117:/home/fschaef/prj/quex/trunk/quex/code_base/analyzer/member/basic.i ****     TEMPLATE_IN(InputHandleT) void
 118:/home/fschaef/prj/quex/trunk/quex/code_base/analyzer/member/basic.i ****     QUEX_NAME(reset_basic)(QUEX_TYPE_ANALYZER*  me,
 119:/home/fschaef/prj/quex/trunk/quex/code_base/analyzer/member/basic.i ****                            InputHandleT*        input_handle, 
 120:/home/fschaef/prj/quex/trunk/quex/code_base/analyzer/member/basic.i ****                            const char*          CharacterEncodingName, 
 121:/home/fschaef/prj/quex/trunk/quex/code_base/analyzer/member/basic.i ****                            const size_t         TranslationBufferMemorySize)
 122:/home/fschaef/prj/quex/trunk/quex/code_base/analyzer/member/basic.i ****         /* Reset of Components of the Lexical Analyzer Engine ____________________________*/
 123:/home/fschaef/prj/quex/trunk/quex/code_base/analyzer/member/basic.i ****     {
GAS LISTING /tmp/cc23nfB3.s 			page 35


 124:/home/fschaef/prj/quex/trunk/quex/code_base/analyzer/member/basic.i **** #       ifdef __QUEX_OPTION_COUNTER
 125:/home/fschaef/prj/quex/trunk/quex/code_base/analyzer/member/basic.i ****         QUEX_NAME(Counter_reset)(&me->counter);
 126:/home/fschaef/prj/quex/trunk/quex/code_base/analyzer/member/basic.i **** #       endif
 127:/home/fschaef/prj/quex/trunk/quex/code_base/analyzer/member/basic.i **** 
 128:/home/fschaef/prj/quex/trunk/quex/code_base/analyzer/member/basic.i **** #       ifdef QUEX_OPTION_TOKEN_POLICY_QUEUE
 129:/home/fschaef/prj/quex/trunk/quex/code_base/analyzer/member/basic.i ****         QUEX_NAME(TokenQueue_reset)(&me->_token_queue);
 130:/home/fschaef/prj/quex/trunk/quex/code_base/analyzer/member/basic.i **** #       endif
 131:/home/fschaef/prj/quex/trunk/quex/code_base/analyzer/member/basic.i **** 
 132:/home/fschaef/prj/quex/trunk/quex/code_base/analyzer/member/basic.i **** #       ifdef QUEX_OPTION_INCLUDE_STACK
 133:/home/fschaef/prj/quex/trunk/quex/code_base/analyzer/member/basic.i ****         QUEX_NAME(include_stack_delete)((QUEX_TYPE_ANALYZER*)me);
 134:/home/fschaef/prj/quex/trunk/quex/code_base/analyzer/member/basic.i **** #       endif
 135:/home/fschaef/prj/quex/trunk/quex/code_base/analyzer/member/basic.i **** 
 136:/home/fschaef/prj/quex/trunk/quex/code_base/analyzer/member/basic.i ****         /* IMPORTANT: THE ACCUMULATOR CAN ONLY BE DESTRUCTED AFTER THE INCLUDE *
 137:/home/fschaef/prj/quex/trunk/quex/code_base/analyzer/member/basic.i ****          *            STACK HAS BEEN DELETED. OTHERWISE, THERE MIGHT BE LEAKS. */
 138:/home/fschaef/prj/quex/trunk/quex/code_base/analyzer/member/basic.i **** #       ifdef QUEX_OPTION_STRING_ACCUMULATOR
 139:/home/fschaef/prj/quex/trunk/quex/code_base/analyzer/member/basic.i ****         QUEX_NAME(Accumulator_clear)(&me->accumulator);
 140:/home/fschaef/prj/quex/trunk/quex/code_base/analyzer/member/basic.i **** #       endif
 141:/home/fschaef/prj/quex/trunk/quex/code_base/analyzer/member/basic.i **** 
 142:/home/fschaef/prj/quex/trunk/quex/code_base/analyzer/member/basic.i **** #       ifdef QUEX_OPTION_POST_CATEGORIZER
 143:/home/fschaef/prj/quex/trunk/quex/code_base/analyzer/member/basic.i ****         QUEX_NAME(PostCategorizer_clear)(&me->post_categorizer);
 144:/home/fschaef/prj/quex/trunk/quex/code_base/analyzer/member/basic.i **** #       endif
 145:/home/fschaef/prj/quex/trunk/quex/code_base/analyzer/member/basic.i **** 
 146:/home/fschaef/prj/quex/trunk/quex/code_base/analyzer/member/basic.i ****         me->_mode_stack.end        = me->_mode_stack.begin;
 147:/home/fschaef/prj/quex/trunk/quex/code_base/analyzer/member/basic.i ****         me->_mode_stack.memory_end = me->_mode_stack.begin + QUEX_SETTING_MODE_STACK_SIZE;
 148:/home/fschaef/prj/quex/trunk/quex/code_base/analyzer/member/basic.i **** 
 149:/home/fschaef/prj/quex/trunk/quex/code_base/analyzer/member/basic.i ****         QUEX_NAME(Buffer_reset)(&me->buffer, input_handle, CharacterEncodingName, TranslationBuffer
 150:/home/fschaef/prj/quex/trunk/quex/code_base/analyzer/member/basic.i ****     }
 151:/home/fschaef/prj/quex/trunk/quex/code_base/analyzer/member/basic.i **** 
 152:/home/fschaef/prj/quex/trunk/quex/code_base/analyzer/member/basic.i **** 
 153:/home/fschaef/prj/quex/trunk/quex/code_base/analyzer/member/basic.i ****     QUEX_INLINE void
 154:/home/fschaef/prj/quex/trunk/quex/code_base/analyzer/member/basic.i ****     QUEX_NAME(destruct_basic)(QUEX_TYPE_ANALYZER* me)
 155:/home/fschaef/prj/quex/trunk/quex/code_base/analyzer/member/basic.i ****     {
 156:/home/fschaef/prj/quex/trunk/quex/code_base/analyzer/member/basic.i **** #       ifdef QUEX_OPTION_TOKEN_POLICY_QUEUE 
 157:/home/fschaef/prj/quex/trunk/quex/code_base/analyzer/member/basic.i ****         QUEX_NAME(TokenQueue_destruct)(&me->_token_queue);
 158:/home/fschaef/prj/quex/trunk/quex/code_base/analyzer/member/basic.i **** #       endif
 159:/home/fschaef/prj/quex/trunk/quex/code_base/analyzer/member/basic.i **** 
 160:/home/fschaef/prj/quex/trunk/quex/code_base/analyzer/member/basic.i **** #       ifdef QUEX_OPTION_INCLUDE_STACK
 161:/home/fschaef/prj/quex/trunk/quex/code_base/analyzer/member/basic.i ****         QUEX_NAME(include_stack_delete)((QUEX_TYPE_ANALYZER*)me);
 162:/home/fschaef/prj/quex/trunk/quex/code_base/analyzer/member/basic.i **** #       endif
 163:/home/fschaef/prj/quex/trunk/quex/code_base/analyzer/member/basic.i **** 
 164:/home/fschaef/prj/quex/trunk/quex/code_base/analyzer/member/basic.i ****         /* IMPORTANT: THE ACCUMULATOR CAN ONLY BE DESTRUCTED AFTER THE INCLUDE *
 165:/home/fschaef/prj/quex/trunk/quex/code_base/analyzer/member/basic.i ****          *            STACK HAS BEEN DELETED. OTHERWISE, THERE MIGHT BE LEAKS. */
 166:/home/fschaef/prj/quex/trunk/quex/code_base/analyzer/member/basic.i **** #       ifdef QUEX_OPTION_STRING_ACCUMULATOR
 167:/home/fschaef/prj/quex/trunk/quex/code_base/analyzer/member/basic.i ****         QUEX_NAME(Accumulator_destruct)(&me->accumulator);
 168:/home/fschaef/prj/quex/trunk/quex/code_base/analyzer/member/basic.i **** #       endif
 169:/home/fschaef/prj/quex/trunk/quex/code_base/analyzer/member/basic.i ****        
 170:/home/fschaef/prj/quex/trunk/quex/code_base/analyzer/member/basic.i **** #       ifdef QUEX_OPTION_POST_CATEGORIZER
 171:/home/fschaef/prj/quex/trunk/quex/code_base/analyzer/member/basic.i ****         QUEX_NAME(PostCategorizer_destruct)(&me->post_categorizer);
 172:/home/fschaef/prj/quex/trunk/quex/code_base/analyzer/member/basic.i **** #       endif
 173:/home/fschaef/prj/quex/trunk/quex/code_base/analyzer/member/basic.i **** 
 174:/home/fschaef/prj/quex/trunk/quex/code_base/analyzer/member/basic.i ****         QUEX_NAME(Buffer_destruct)(&me->buffer);
 306              		.loc 7 174 0
 307 005e 83EC0C   		subl	$12, %esp
 308 0061 52       		pushl	%edx
 309 0062 E8FCFFFF 		call	_ZN4quex25quex_scan_Buffer_destructEPNS_16quex_scan_BufferE
 309      FF
 175:/home/fschaef/prj/quex/trunk/quex/code_base/analyzer/member/basic.i **** 
GAS LISTING /tmp/cc23nfB3.s 			page 36


 176:/home/fschaef/prj/quex/trunk/quex/code_base/analyzer/member/basic.i ****         if( me->__file_handle_allocated_by_constructor != 0x0 ) {
 310              		.loc 7 176 0
 311 0067 8B838000 		movl	128(%ebx), %eax
 311      0000
 312 006d 83C410   		addl	$16, %esp
 313 0070 85C0     		testl	%eax, %eax
 314 0072 740F     		je	.L20
 177:/home/fschaef/prj/quex/trunk/quex/code_base/analyzer/member/basic.i ****             __QUEX_STD_fclose(me->__file_handle_allocated_by_constructor); 
 315              		.loc 7 177 0
 316 0074 894508   		movl	%eax, 8(%ebp)
 317              	.LBE346:
 318              	.LBE345:
 143:/home/fschaef/prj/quex/trunk/quex/code_base/analyzer/member/constructor.i ****     QUEX_NAME(destruct_basic)(me);
 144:/home/fschaef/prj/quex/trunk/quex/code_base/analyzer/member/constructor.i **** }
 319              		.loc 4 144 0
 320 0077 8D65F4   		leal	-12(%ebp), %esp
 321 007a 5B       		popl	%ebx
 322              	.LVL10:
 323 007b 5E       		popl	%esi
 324 007c 5F       		popl	%edi
 325 007d 5D       		popl	%ebp
 326              	.LBB359:
 327              	.LBB358:
 328              		.loc 7 177 0
 329              		.cfi_escape 0x2e,0x4
 330 007e E9FCFFFF 		jmp	fclose
 330      FF
 331              	.LVL11:
 332              	.L20:
 333              	.LBE358:
 334              	.LBE359:
 335              		.loc 4 144 0
 336 0083 8D65F4   		leal	-12(%ebp), %esp
 337 0086 5B       		popl	%ebx
 338              	.LVL12:
 339 0087 5E       		popl	%esi
 340 0088 5F       		popl	%edi
 341 0089 5D       		popl	%ebp
 342 008a C3       		ret
 343              		.cfi_endproc
 344              	.LFE1227:
 346              		.section	.text._ZNSbIhSt11char_traitsIhESaIhEED1Ev,"axG",@progbits,_ZNSbIhSt11char_traitsIhESaIhEE
 347              		.align 2
 348              		.weak	_ZNSbIhSt11char_traitsIhESaIhEED1Ev
 350              	_ZNSbIhSt11char_traitsIhESaIhEED1Ev:
 351              	.LFB1323:
 352              		.file 8 "/usr/include/c++/4.4/bits/basic_string.h"
   1:/usr/include/c++/4.4/bits/basic_string.h **** // Components for manipulating sequences of characters -*- C++ -*-
   2:/usr/include/c++/4.4/bits/basic_string.h **** 
   3:/usr/include/c++/4.4/bits/basic_string.h **** // Copyright (C) 1997, 1998, 1999, 2000, 2001, 2002, 2003, 2004, 2005,
   4:/usr/include/c++/4.4/bits/basic_string.h **** // 2006, 2007, 2008, 2009
   5:/usr/include/c++/4.4/bits/basic_string.h **** // Free Software Foundation, Inc.
   6:/usr/include/c++/4.4/bits/basic_string.h **** //
   7:/usr/include/c++/4.4/bits/basic_string.h **** // This file is part of the GNU ISO C++ Library.  This library is free
   8:/usr/include/c++/4.4/bits/basic_string.h **** // software; you can redistribute it and/or modify it under the
   9:/usr/include/c++/4.4/bits/basic_string.h **** // terms of the GNU General Public License as published by the
  10:/usr/include/c++/4.4/bits/basic_string.h **** // Free Software Foundation; either version 3, or (at your option)
GAS LISTING /tmp/cc23nfB3.s 			page 37


  11:/usr/include/c++/4.4/bits/basic_string.h **** // any later version.
  12:/usr/include/c++/4.4/bits/basic_string.h **** 
  13:/usr/include/c++/4.4/bits/basic_string.h **** // This library is distributed in the hope that it will be useful,
  14:/usr/include/c++/4.4/bits/basic_string.h **** // but WITHOUT ANY WARRANTY; without even the implied warranty of
  15:/usr/include/c++/4.4/bits/basic_string.h **** // MERCHANTABILITY or FITNESS FOR A PARTICULAR PURPOSE.  See the
  16:/usr/include/c++/4.4/bits/basic_string.h **** // GNU General Public License for more details.
  17:/usr/include/c++/4.4/bits/basic_string.h **** 
  18:/usr/include/c++/4.4/bits/basic_string.h **** // Under Section 7 of GPL version 3, you are granted additional
  19:/usr/include/c++/4.4/bits/basic_string.h **** // permissions described in the GCC Runtime Library Exception, version
  20:/usr/include/c++/4.4/bits/basic_string.h **** // 3.1, as published by the Free Software Foundation.
  21:/usr/include/c++/4.4/bits/basic_string.h **** 
  22:/usr/include/c++/4.4/bits/basic_string.h **** // You should have received a copy of the GNU General Public License and
  23:/usr/include/c++/4.4/bits/basic_string.h **** // a copy of the GCC Runtime Library Exception along with this program;
  24:/usr/include/c++/4.4/bits/basic_string.h **** // see the files COPYING3 and COPYING.RUNTIME respectively.  If not, see
  25:/usr/include/c++/4.4/bits/basic_string.h **** // <http://www.gnu.org/licenses/>.
  26:/usr/include/c++/4.4/bits/basic_string.h **** 
  27:/usr/include/c++/4.4/bits/basic_string.h **** /** @file basic_string.h
  28:/usr/include/c++/4.4/bits/basic_string.h ****  *  This is an internal header file, included by other library headers.
  29:/usr/include/c++/4.4/bits/basic_string.h ****  *  You should not attempt to use it directly.
  30:/usr/include/c++/4.4/bits/basic_string.h ****  */
  31:/usr/include/c++/4.4/bits/basic_string.h **** 
  32:/usr/include/c++/4.4/bits/basic_string.h **** //
  33:/usr/include/c++/4.4/bits/basic_string.h **** // ISO C++ 14882: 21 Strings library
  34:/usr/include/c++/4.4/bits/basic_string.h **** //
  35:/usr/include/c++/4.4/bits/basic_string.h **** 
  36:/usr/include/c++/4.4/bits/basic_string.h **** #ifndef _BASIC_STRING_H
  37:/usr/include/c++/4.4/bits/basic_string.h **** #define _BASIC_STRING_H 1
  38:/usr/include/c++/4.4/bits/basic_string.h **** 
  39:/usr/include/c++/4.4/bits/basic_string.h **** #pragma GCC system_header
  40:/usr/include/c++/4.4/bits/basic_string.h **** 
  41:/usr/include/c++/4.4/bits/basic_string.h **** #include <ext/atomicity.h>
  42:/usr/include/c++/4.4/bits/basic_string.h **** #include <debug/debug.h>
  43:/usr/include/c++/4.4/bits/basic_string.h **** #include <initializer_list>
  44:/usr/include/c++/4.4/bits/basic_string.h **** 
  45:/usr/include/c++/4.4/bits/basic_string.h **** _GLIBCXX_BEGIN_NAMESPACE(std)
  46:/usr/include/c++/4.4/bits/basic_string.h **** 
  47:/usr/include/c++/4.4/bits/basic_string.h ****   /**
  48:/usr/include/c++/4.4/bits/basic_string.h ****    *  @class basic_string basic_string.h <string>
  49:/usr/include/c++/4.4/bits/basic_string.h ****    *  @brief  Managing sequences of characters and character-like objects.
  50:/usr/include/c++/4.4/bits/basic_string.h ****    *
  51:/usr/include/c++/4.4/bits/basic_string.h ****    *  @ingroup sequences
  52:/usr/include/c++/4.4/bits/basic_string.h ****    *
  53:/usr/include/c++/4.4/bits/basic_string.h ****    *  Meets the requirements of a <a href="tables.html#65">container</a>, a
  54:/usr/include/c++/4.4/bits/basic_string.h ****    *  <a href="tables.html#66">reversible container</a>, and a
  55:/usr/include/c++/4.4/bits/basic_string.h ****    *  <a href="tables.html#67">sequence</a>.  Of the
  56:/usr/include/c++/4.4/bits/basic_string.h ****    *  <a href="tables.html#68">optional sequence requirements</a>, only
  57:/usr/include/c++/4.4/bits/basic_string.h ****    *  @c push_back, @c at, and array access are supported.
  58:/usr/include/c++/4.4/bits/basic_string.h ****    *
  59:/usr/include/c++/4.4/bits/basic_string.h ****    *  @doctodo
  60:/usr/include/c++/4.4/bits/basic_string.h ****    *
  61:/usr/include/c++/4.4/bits/basic_string.h ****    *
  62:/usr/include/c++/4.4/bits/basic_string.h ****    *  Documentation?  What's that?
  63:/usr/include/c++/4.4/bits/basic_string.h ****    *  Nathan Myers <ncm@cantrip.org>.
  64:/usr/include/c++/4.4/bits/basic_string.h ****    *
  65:/usr/include/c++/4.4/bits/basic_string.h ****    *  A string looks like this:
  66:/usr/include/c++/4.4/bits/basic_string.h ****    *
  67:/usr/include/c++/4.4/bits/basic_string.h ****    *  @code
GAS LISTING /tmp/cc23nfB3.s 			page 38


  68:/usr/include/c++/4.4/bits/basic_string.h ****    *                                        [_Rep]
  69:/usr/include/c++/4.4/bits/basic_string.h ****    *                                        _M_length
  70:/usr/include/c++/4.4/bits/basic_string.h ****    *   [basic_string<char_type>]            _M_capacity
  71:/usr/include/c++/4.4/bits/basic_string.h ****    *   _M_dataplus                          _M_refcount
  72:/usr/include/c++/4.4/bits/basic_string.h ****    *   _M_p ---------------->               unnamed array of char_type
  73:/usr/include/c++/4.4/bits/basic_string.h ****    *  @endcode
  74:/usr/include/c++/4.4/bits/basic_string.h ****    *
  75:/usr/include/c++/4.4/bits/basic_string.h ****    *  Where the _M_p points to the first character in the string, and
  76:/usr/include/c++/4.4/bits/basic_string.h ****    *  you cast it to a pointer-to-_Rep and subtract 1 to get a
  77:/usr/include/c++/4.4/bits/basic_string.h ****    *  pointer to the header.
  78:/usr/include/c++/4.4/bits/basic_string.h ****    *
  79:/usr/include/c++/4.4/bits/basic_string.h ****    *  This approach has the enormous advantage that a string object
  80:/usr/include/c++/4.4/bits/basic_string.h ****    *  requires only one allocation.  All the ugliness is confined
  81:/usr/include/c++/4.4/bits/basic_string.h ****    *  within a single pair of inline functions, which each compile to
  82:/usr/include/c++/4.4/bits/basic_string.h ****    *  a single "add" instruction: _Rep::_M_data(), and
  83:/usr/include/c++/4.4/bits/basic_string.h ****    *  string::_M_rep(); and the allocation function which gets a
  84:/usr/include/c++/4.4/bits/basic_string.h ****    *  block of raw bytes and with room enough and constructs a _Rep
  85:/usr/include/c++/4.4/bits/basic_string.h ****    *  object at the front.
  86:/usr/include/c++/4.4/bits/basic_string.h ****    *
  87:/usr/include/c++/4.4/bits/basic_string.h ****    *  The reason you want _M_data pointing to the character array and
  88:/usr/include/c++/4.4/bits/basic_string.h ****    *  not the _Rep is so that the debugger can see the string
  89:/usr/include/c++/4.4/bits/basic_string.h ****    *  contents. (Probably we should add a non-inline member to get
  90:/usr/include/c++/4.4/bits/basic_string.h ****    *  the _Rep for the debugger to use, so users can check the actual
  91:/usr/include/c++/4.4/bits/basic_string.h ****    *  string length.)
  92:/usr/include/c++/4.4/bits/basic_string.h ****    *
  93:/usr/include/c++/4.4/bits/basic_string.h ****    *  Note that the _Rep object is a POD so that you can have a
  94:/usr/include/c++/4.4/bits/basic_string.h ****    *  static "empty string" _Rep object already "constructed" before
  95:/usr/include/c++/4.4/bits/basic_string.h ****    *  static constructors have run.  The reference-count encoding is
  96:/usr/include/c++/4.4/bits/basic_string.h ****    *  chosen so that a 0 indicates one reference, so you never try to
  97:/usr/include/c++/4.4/bits/basic_string.h ****    *  destroy the empty-string _Rep object.
  98:/usr/include/c++/4.4/bits/basic_string.h ****    *
  99:/usr/include/c++/4.4/bits/basic_string.h ****    *  All but the last paragraph is considered pretty conventional
 100:/usr/include/c++/4.4/bits/basic_string.h ****    *  for a C++ string implementation.
 101:/usr/include/c++/4.4/bits/basic_string.h ****   */
 102:/usr/include/c++/4.4/bits/basic_string.h ****   // 21.3  Template class basic_string
 103:/usr/include/c++/4.4/bits/basic_string.h ****   template<typename _CharT, typename _Traits, typename _Alloc>
 104:/usr/include/c++/4.4/bits/basic_string.h ****     class basic_string
 105:/usr/include/c++/4.4/bits/basic_string.h ****     {
 106:/usr/include/c++/4.4/bits/basic_string.h ****       typedef typename _Alloc::template rebind<_CharT>::other _CharT_alloc_type;
 107:/usr/include/c++/4.4/bits/basic_string.h **** 
 108:/usr/include/c++/4.4/bits/basic_string.h ****       // Types:
 109:/usr/include/c++/4.4/bits/basic_string.h ****     public:
 110:/usr/include/c++/4.4/bits/basic_string.h ****       typedef _Traits					    traits_type;
 111:/usr/include/c++/4.4/bits/basic_string.h ****       typedef typename _Traits::char_type		    value_type;
 112:/usr/include/c++/4.4/bits/basic_string.h ****       typedef _Alloc					    allocator_type;
 113:/usr/include/c++/4.4/bits/basic_string.h ****       typedef typename _CharT_alloc_type::size_type	    size_type;
 114:/usr/include/c++/4.4/bits/basic_string.h ****       typedef typename _CharT_alloc_type::difference_type   difference_type;
 115:/usr/include/c++/4.4/bits/basic_string.h ****       typedef typename _CharT_alloc_type::reference	    reference;
 116:/usr/include/c++/4.4/bits/basic_string.h ****       typedef typename _CharT_alloc_type::const_reference   const_reference;
 117:/usr/include/c++/4.4/bits/basic_string.h ****       typedef typename _CharT_alloc_type::pointer	    pointer;
 118:/usr/include/c++/4.4/bits/basic_string.h ****       typedef typename _CharT_alloc_type::const_pointer	    const_pointer;
 119:/usr/include/c++/4.4/bits/basic_string.h ****       typedef __gnu_cxx::__normal_iterator<pointer, basic_string>  iterator;
 120:/usr/include/c++/4.4/bits/basic_string.h ****       typedef __gnu_cxx::__normal_iterator<const_pointer, basic_string>
 121:/usr/include/c++/4.4/bits/basic_string.h ****                                                             const_iterator;
 122:/usr/include/c++/4.4/bits/basic_string.h ****       typedef std::reverse_iterator<const_iterator>	const_reverse_iterator;
 123:/usr/include/c++/4.4/bits/basic_string.h ****       typedef std::reverse_iterator<iterator>		    reverse_iterator;
 124:/usr/include/c++/4.4/bits/basic_string.h **** 
GAS LISTING /tmp/cc23nfB3.s 			page 39


 125:/usr/include/c++/4.4/bits/basic_string.h ****     private:
 126:/usr/include/c++/4.4/bits/basic_string.h ****       // _Rep: string representation
 127:/usr/include/c++/4.4/bits/basic_string.h ****       //   Invariants:
 128:/usr/include/c++/4.4/bits/basic_string.h ****       //   1. String really contains _M_length + 1 characters: due to 21.3.4
 129:/usr/include/c++/4.4/bits/basic_string.h ****       //      must be kept null-terminated.
 130:/usr/include/c++/4.4/bits/basic_string.h ****       //   2. _M_capacity >= _M_length
 131:/usr/include/c++/4.4/bits/basic_string.h ****       //      Allocated memory is always (_M_capacity + 1) * sizeof(_CharT).
 132:/usr/include/c++/4.4/bits/basic_string.h ****       //   3. _M_refcount has three states:
 133:/usr/include/c++/4.4/bits/basic_string.h ****       //      -1: leaked, one reference, no ref-copies allowed, non-const.
 134:/usr/include/c++/4.4/bits/basic_string.h ****       //       0: one reference, non-const.
 135:/usr/include/c++/4.4/bits/basic_string.h ****       //     n>0: n + 1 references, operations require a lock, const.
 136:/usr/include/c++/4.4/bits/basic_string.h ****       //   4. All fields==0 is an empty string, given the extra storage
 137:/usr/include/c++/4.4/bits/basic_string.h ****       //      beyond-the-end for a null terminator; thus, the shared
 138:/usr/include/c++/4.4/bits/basic_string.h ****       //      empty string representation needs no constructor.
 139:/usr/include/c++/4.4/bits/basic_string.h **** 
 140:/usr/include/c++/4.4/bits/basic_string.h ****       struct _Rep_base
 141:/usr/include/c++/4.4/bits/basic_string.h ****       {
 142:/usr/include/c++/4.4/bits/basic_string.h **** 	size_type		_M_length;
 143:/usr/include/c++/4.4/bits/basic_string.h **** 	size_type		_M_capacity;
 144:/usr/include/c++/4.4/bits/basic_string.h **** 	_Atomic_word		_M_refcount;
 145:/usr/include/c++/4.4/bits/basic_string.h ****       };
 146:/usr/include/c++/4.4/bits/basic_string.h **** 
 147:/usr/include/c++/4.4/bits/basic_string.h ****       struct _Rep : _Rep_base
 148:/usr/include/c++/4.4/bits/basic_string.h ****       {
 149:/usr/include/c++/4.4/bits/basic_string.h **** 	// Types:
 150:/usr/include/c++/4.4/bits/basic_string.h **** 	typedef typename _Alloc::template rebind<char>::other _Raw_bytes_alloc;
 151:/usr/include/c++/4.4/bits/basic_string.h **** 
 152:/usr/include/c++/4.4/bits/basic_string.h **** 	// (Public) Data members:
 153:/usr/include/c++/4.4/bits/basic_string.h **** 
 154:/usr/include/c++/4.4/bits/basic_string.h **** 	// The maximum number of individual char_type elements of an
 155:/usr/include/c++/4.4/bits/basic_string.h **** 	// individual string is determined by _S_max_size. This is the
 156:/usr/include/c++/4.4/bits/basic_string.h **** 	// value that will be returned by max_size().  (Whereas npos
 157:/usr/include/c++/4.4/bits/basic_string.h **** 	// is the maximum number of bytes the allocator can allocate.)
 158:/usr/include/c++/4.4/bits/basic_string.h **** 	// If one was to divvy up the theoretical largest size string,
 159:/usr/include/c++/4.4/bits/basic_string.h **** 	// with a terminating character and m _CharT elements, it'd
 160:/usr/include/c++/4.4/bits/basic_string.h **** 	// look like this:
 161:/usr/include/c++/4.4/bits/basic_string.h **** 	// npos = sizeof(_Rep) + (m * sizeof(_CharT)) + sizeof(_CharT)
 162:/usr/include/c++/4.4/bits/basic_string.h **** 	// Solving for m:
 163:/usr/include/c++/4.4/bits/basic_string.h **** 	// m = ((npos - sizeof(_Rep))/sizeof(CharT)) - 1
 164:/usr/include/c++/4.4/bits/basic_string.h **** 	// In addition, this implementation quarters this amount.
 165:/usr/include/c++/4.4/bits/basic_string.h **** 	static const size_type	_S_max_size;
 166:/usr/include/c++/4.4/bits/basic_string.h **** 	static const _CharT	_S_terminal;
 167:/usr/include/c++/4.4/bits/basic_string.h **** 
 168:/usr/include/c++/4.4/bits/basic_string.h **** 	// The following storage is init'd to 0 by the linker, resulting
 169:/usr/include/c++/4.4/bits/basic_string.h ****         // (carefully) in an empty string with one reference.
 170:/usr/include/c++/4.4/bits/basic_string.h ****         static size_type _S_empty_rep_storage[];
 171:/usr/include/c++/4.4/bits/basic_string.h **** 
 172:/usr/include/c++/4.4/bits/basic_string.h ****         static _Rep&
 173:/usr/include/c++/4.4/bits/basic_string.h ****         _S_empty_rep()
 174:/usr/include/c++/4.4/bits/basic_string.h ****         { 
 175:/usr/include/c++/4.4/bits/basic_string.h **** 	  // NB: Mild hack to avoid strict-aliasing warnings.  Note that
 176:/usr/include/c++/4.4/bits/basic_string.h **** 	  // _S_empty_rep_storage is never modified and the punning should
 177:/usr/include/c++/4.4/bits/basic_string.h **** 	  // be reasonably safe in this case.
 178:/usr/include/c++/4.4/bits/basic_string.h **** 	  void* __p = reinterpret_cast<void*>(&_S_empty_rep_storage);
 179:/usr/include/c++/4.4/bits/basic_string.h **** 	  return *reinterpret_cast<_Rep*>(__p);
 180:/usr/include/c++/4.4/bits/basic_string.h **** 	}
 181:/usr/include/c++/4.4/bits/basic_string.h **** 
GAS LISTING /tmp/cc23nfB3.s 			page 40


 182:/usr/include/c++/4.4/bits/basic_string.h ****         bool
 183:/usr/include/c++/4.4/bits/basic_string.h **** 	_M_is_leaked() const
 184:/usr/include/c++/4.4/bits/basic_string.h ****         { return this->_M_refcount < 0; }
 185:/usr/include/c++/4.4/bits/basic_string.h **** 
 186:/usr/include/c++/4.4/bits/basic_string.h ****         bool
 187:/usr/include/c++/4.4/bits/basic_string.h **** 	_M_is_shared() const
 188:/usr/include/c++/4.4/bits/basic_string.h ****         { return this->_M_refcount > 0; }
 189:/usr/include/c++/4.4/bits/basic_string.h **** 
 190:/usr/include/c++/4.4/bits/basic_string.h ****         void
 191:/usr/include/c++/4.4/bits/basic_string.h **** 	_M_set_leaked()
 192:/usr/include/c++/4.4/bits/basic_string.h ****         { this->_M_refcount = -1; }
 193:/usr/include/c++/4.4/bits/basic_string.h **** 
 194:/usr/include/c++/4.4/bits/basic_string.h ****         void
 195:/usr/include/c++/4.4/bits/basic_string.h **** 	_M_set_sharable()
 196:/usr/include/c++/4.4/bits/basic_string.h ****         { this->_M_refcount = 0; }
 197:/usr/include/c++/4.4/bits/basic_string.h **** 
 198:/usr/include/c++/4.4/bits/basic_string.h **** 	void
 199:/usr/include/c++/4.4/bits/basic_string.h **** 	_M_set_length_and_sharable(size_type __n)
 200:/usr/include/c++/4.4/bits/basic_string.h **** 	{
 201:/usr/include/c++/4.4/bits/basic_string.h **** #ifndef _GLIBCXX_FULLY_DYNAMIC_STRING
 202:/usr/include/c++/4.4/bits/basic_string.h **** 	  if (__builtin_expect(this != &_S_empty_rep(), false))
 203:/usr/include/c++/4.4/bits/basic_string.h **** #endif
 204:/usr/include/c++/4.4/bits/basic_string.h **** 	    {
 205:/usr/include/c++/4.4/bits/basic_string.h **** 	      this->_M_set_sharable();  // One reference.
 206:/usr/include/c++/4.4/bits/basic_string.h **** 	      this->_M_length = __n;
 207:/usr/include/c++/4.4/bits/basic_string.h **** 	      traits_type::assign(this->_M_refdata()[__n], _S_terminal);
 208:/usr/include/c++/4.4/bits/basic_string.h **** 	      // grrr. (per 21.3.4)
 209:/usr/include/c++/4.4/bits/basic_string.h **** 	      // You cannot leave those LWG people alone for a second.
 210:/usr/include/c++/4.4/bits/basic_string.h **** 	    }
 211:/usr/include/c++/4.4/bits/basic_string.h **** 	}
 212:/usr/include/c++/4.4/bits/basic_string.h **** 
 213:/usr/include/c++/4.4/bits/basic_string.h **** 	_CharT*
 214:/usr/include/c++/4.4/bits/basic_string.h **** 	_M_refdata() throw()
 215:/usr/include/c++/4.4/bits/basic_string.h **** 	{ return reinterpret_cast<_CharT*>(this + 1); }
 216:/usr/include/c++/4.4/bits/basic_string.h **** 
 217:/usr/include/c++/4.4/bits/basic_string.h **** 	_CharT*
 218:/usr/include/c++/4.4/bits/basic_string.h **** 	_M_grab(const _Alloc& __alloc1, const _Alloc& __alloc2)
 219:/usr/include/c++/4.4/bits/basic_string.h **** 	{
 220:/usr/include/c++/4.4/bits/basic_string.h **** 	  return (!_M_is_leaked() && __alloc1 == __alloc2)
 221:/usr/include/c++/4.4/bits/basic_string.h **** 	          ? _M_refcopy() : _M_clone(__alloc1);
 222:/usr/include/c++/4.4/bits/basic_string.h **** 	}
 223:/usr/include/c++/4.4/bits/basic_string.h **** 
 224:/usr/include/c++/4.4/bits/basic_string.h **** 	// Create & Destroy
 225:/usr/include/c++/4.4/bits/basic_string.h **** 	static _Rep*
 226:/usr/include/c++/4.4/bits/basic_string.h **** 	_S_create(size_type, size_type, const _Alloc&);
 227:/usr/include/c++/4.4/bits/basic_string.h **** 
 228:/usr/include/c++/4.4/bits/basic_string.h **** 	void
 229:/usr/include/c++/4.4/bits/basic_string.h **** 	_M_dispose(const _Alloc& __a)
 230:/usr/include/c++/4.4/bits/basic_string.h **** 	{
 231:/usr/include/c++/4.4/bits/basic_string.h **** #ifndef _GLIBCXX_FULLY_DYNAMIC_STRING
 232:/usr/include/c++/4.4/bits/basic_string.h **** 	  if (__builtin_expect(this != &_S_empty_rep(), false))
 233:/usr/include/c++/4.4/bits/basic_string.h **** #endif
 234:/usr/include/c++/4.4/bits/basic_string.h **** 	    if (__gnu_cxx::__exchange_and_add_dispatch(&this->_M_refcount,
 235:/usr/include/c++/4.4/bits/basic_string.h **** 						       -1) <= 0)
 236:/usr/include/c++/4.4/bits/basic_string.h **** 	      _M_destroy(__a);
 237:/usr/include/c++/4.4/bits/basic_string.h **** 	}  // XXX MT
 238:/usr/include/c++/4.4/bits/basic_string.h **** 
GAS LISTING /tmp/cc23nfB3.s 			page 41


 239:/usr/include/c++/4.4/bits/basic_string.h **** 	void
 240:/usr/include/c++/4.4/bits/basic_string.h **** 	_M_destroy(const _Alloc&) throw();
 241:/usr/include/c++/4.4/bits/basic_string.h **** 
 242:/usr/include/c++/4.4/bits/basic_string.h **** 	_CharT*
 243:/usr/include/c++/4.4/bits/basic_string.h **** 	_M_refcopy() throw()
 244:/usr/include/c++/4.4/bits/basic_string.h **** 	{
 245:/usr/include/c++/4.4/bits/basic_string.h **** #ifndef _GLIBCXX_FULLY_DYNAMIC_STRING
 246:/usr/include/c++/4.4/bits/basic_string.h **** 	  if (__builtin_expect(this != &_S_empty_rep(), false))
 247:/usr/include/c++/4.4/bits/basic_string.h **** #endif
 248:/usr/include/c++/4.4/bits/basic_string.h ****             __gnu_cxx::__atomic_add_dispatch(&this->_M_refcount, 1);
 249:/usr/include/c++/4.4/bits/basic_string.h **** 	  return _M_refdata();
 250:/usr/include/c++/4.4/bits/basic_string.h **** 	}  // XXX MT
 251:/usr/include/c++/4.4/bits/basic_string.h **** 
 252:/usr/include/c++/4.4/bits/basic_string.h **** 	_CharT*
 253:/usr/include/c++/4.4/bits/basic_string.h **** 	_M_clone(const _Alloc&, size_type __res = 0);
 254:/usr/include/c++/4.4/bits/basic_string.h ****       };
 255:/usr/include/c++/4.4/bits/basic_string.h **** 
 256:/usr/include/c++/4.4/bits/basic_string.h ****       // Use empty-base optimization: http://www.cantrip.org/emptyopt.html
 257:/usr/include/c++/4.4/bits/basic_string.h ****       struct _Alloc_hider : _Alloc
 258:/usr/include/c++/4.4/bits/basic_string.h ****       {
 259:/usr/include/c++/4.4/bits/basic_string.h **** 	_Alloc_hider(_CharT* __dat, const _Alloc& __a)
 260:/usr/include/c++/4.4/bits/basic_string.h **** 	: _Alloc(__a), _M_p(__dat) { }
 261:/usr/include/c++/4.4/bits/basic_string.h **** 
 262:/usr/include/c++/4.4/bits/basic_string.h **** 	_CharT* _M_p; // The actual data.
 263:/usr/include/c++/4.4/bits/basic_string.h ****       };
 264:/usr/include/c++/4.4/bits/basic_string.h **** 
 265:/usr/include/c++/4.4/bits/basic_string.h ****     public:
 266:/usr/include/c++/4.4/bits/basic_string.h ****       // Data Members (public):
 267:/usr/include/c++/4.4/bits/basic_string.h ****       // NB: This is an unsigned type, and thus represents the maximum
 268:/usr/include/c++/4.4/bits/basic_string.h ****       // size that the allocator can hold.
 269:/usr/include/c++/4.4/bits/basic_string.h ****       ///  Value returned by various member functions when they fail.
 270:/usr/include/c++/4.4/bits/basic_string.h ****       static const size_type	npos = static_cast<size_type>(-1);
 271:/usr/include/c++/4.4/bits/basic_string.h **** 
 272:/usr/include/c++/4.4/bits/basic_string.h ****     private:
 273:/usr/include/c++/4.4/bits/basic_string.h ****       // Data Members (private):
 274:/usr/include/c++/4.4/bits/basic_string.h ****       mutable _Alloc_hider	_M_dataplus;
 275:/usr/include/c++/4.4/bits/basic_string.h **** 
 276:/usr/include/c++/4.4/bits/basic_string.h ****       _CharT*
 277:/usr/include/c++/4.4/bits/basic_string.h ****       _M_data() const
 278:/usr/include/c++/4.4/bits/basic_string.h ****       { return  _M_dataplus._M_p; }
 279:/usr/include/c++/4.4/bits/basic_string.h **** 
 280:/usr/include/c++/4.4/bits/basic_string.h ****       _CharT*
 281:/usr/include/c++/4.4/bits/basic_string.h ****       _M_data(_CharT* __p)
 282:/usr/include/c++/4.4/bits/basic_string.h ****       { return (_M_dataplus._M_p = __p); }
 283:/usr/include/c++/4.4/bits/basic_string.h **** 
 284:/usr/include/c++/4.4/bits/basic_string.h ****       _Rep*
 285:/usr/include/c++/4.4/bits/basic_string.h ****       _M_rep() const
 286:/usr/include/c++/4.4/bits/basic_string.h ****       { return &((reinterpret_cast<_Rep*> (_M_data()))[-1]); }
 287:/usr/include/c++/4.4/bits/basic_string.h **** 
 288:/usr/include/c++/4.4/bits/basic_string.h ****       // For the internal use we have functions similar to `begin'/`end'
 289:/usr/include/c++/4.4/bits/basic_string.h ****       // but they do not call _M_leak.
 290:/usr/include/c++/4.4/bits/basic_string.h ****       iterator
 291:/usr/include/c++/4.4/bits/basic_string.h ****       _M_ibegin() const
 292:/usr/include/c++/4.4/bits/basic_string.h ****       { return iterator(_M_data()); }
 293:/usr/include/c++/4.4/bits/basic_string.h **** 
 294:/usr/include/c++/4.4/bits/basic_string.h ****       iterator
 295:/usr/include/c++/4.4/bits/basic_string.h ****       _M_iend() const
GAS LISTING /tmp/cc23nfB3.s 			page 42


 296:/usr/include/c++/4.4/bits/basic_string.h ****       { return iterator(_M_data() + this->size()); }
 297:/usr/include/c++/4.4/bits/basic_string.h **** 
 298:/usr/include/c++/4.4/bits/basic_string.h ****       void
 299:/usr/include/c++/4.4/bits/basic_string.h ****       _M_leak()    // for use in begin() & non-const op[]
 300:/usr/include/c++/4.4/bits/basic_string.h ****       {
 301:/usr/include/c++/4.4/bits/basic_string.h **** 	if (!_M_rep()->_M_is_leaked())
 302:/usr/include/c++/4.4/bits/basic_string.h **** 	  _M_leak_hard();
 303:/usr/include/c++/4.4/bits/basic_string.h ****       }
 304:/usr/include/c++/4.4/bits/basic_string.h **** 
 305:/usr/include/c++/4.4/bits/basic_string.h ****       size_type
 306:/usr/include/c++/4.4/bits/basic_string.h ****       _M_check(size_type __pos, const char* __s) const
 307:/usr/include/c++/4.4/bits/basic_string.h ****       {
 308:/usr/include/c++/4.4/bits/basic_string.h **** 	if (__pos > this->size())
 309:/usr/include/c++/4.4/bits/basic_string.h **** 	  __throw_out_of_range(__N(__s));
 310:/usr/include/c++/4.4/bits/basic_string.h **** 	return __pos;
 311:/usr/include/c++/4.4/bits/basic_string.h ****       }
 312:/usr/include/c++/4.4/bits/basic_string.h **** 
 313:/usr/include/c++/4.4/bits/basic_string.h ****       void
 314:/usr/include/c++/4.4/bits/basic_string.h ****       _M_check_length(size_type __n1, size_type __n2, const char* __s) const
 315:/usr/include/c++/4.4/bits/basic_string.h ****       {
 316:/usr/include/c++/4.4/bits/basic_string.h **** 	if (this->max_size() - (this->size() - __n1) < __n2)
 317:/usr/include/c++/4.4/bits/basic_string.h **** 	  __throw_length_error(__N(__s));
 318:/usr/include/c++/4.4/bits/basic_string.h ****       }
 319:/usr/include/c++/4.4/bits/basic_string.h **** 
 320:/usr/include/c++/4.4/bits/basic_string.h ****       // NB: _M_limit doesn't check for a bad __pos value.
 321:/usr/include/c++/4.4/bits/basic_string.h ****       size_type
 322:/usr/include/c++/4.4/bits/basic_string.h ****       _M_limit(size_type __pos, size_type __off) const
 323:/usr/include/c++/4.4/bits/basic_string.h ****       {
 324:/usr/include/c++/4.4/bits/basic_string.h **** 	const bool __testoff =  __off < this->size() - __pos;
 325:/usr/include/c++/4.4/bits/basic_string.h **** 	return __testoff ? __off : this->size() - __pos;
 326:/usr/include/c++/4.4/bits/basic_string.h ****       }
 327:/usr/include/c++/4.4/bits/basic_string.h **** 
 328:/usr/include/c++/4.4/bits/basic_string.h ****       // True if _Rep and source do not overlap.
 329:/usr/include/c++/4.4/bits/basic_string.h ****       bool
 330:/usr/include/c++/4.4/bits/basic_string.h ****       _M_disjunct(const _CharT* __s) const
 331:/usr/include/c++/4.4/bits/basic_string.h ****       {
 332:/usr/include/c++/4.4/bits/basic_string.h **** 	return (less<const _CharT*>()(__s, _M_data())
 333:/usr/include/c++/4.4/bits/basic_string.h **** 		|| less<const _CharT*>()(_M_data() + this->size(), __s));
 334:/usr/include/c++/4.4/bits/basic_string.h ****       }
 335:/usr/include/c++/4.4/bits/basic_string.h **** 
 336:/usr/include/c++/4.4/bits/basic_string.h ****       // When __n = 1 way faster than the general multichar
 337:/usr/include/c++/4.4/bits/basic_string.h ****       // traits_type::copy/move/assign.
 338:/usr/include/c++/4.4/bits/basic_string.h ****       static void
 339:/usr/include/c++/4.4/bits/basic_string.h ****       _M_copy(_CharT* __d, const _CharT* __s, size_type __n)
 340:/usr/include/c++/4.4/bits/basic_string.h ****       {
 341:/usr/include/c++/4.4/bits/basic_string.h **** 	if (__n == 1)
 342:/usr/include/c++/4.4/bits/basic_string.h **** 	  traits_type::assign(*__d, *__s);
 343:/usr/include/c++/4.4/bits/basic_string.h **** 	else
 344:/usr/include/c++/4.4/bits/basic_string.h **** 	  traits_type::copy(__d, __s, __n);
 345:/usr/include/c++/4.4/bits/basic_string.h ****       }
 346:/usr/include/c++/4.4/bits/basic_string.h **** 
 347:/usr/include/c++/4.4/bits/basic_string.h ****       static void
 348:/usr/include/c++/4.4/bits/basic_string.h ****       _M_move(_CharT* __d, const _CharT* __s, size_type __n)
 349:/usr/include/c++/4.4/bits/basic_string.h ****       {
 350:/usr/include/c++/4.4/bits/basic_string.h **** 	if (__n == 1)
 351:/usr/include/c++/4.4/bits/basic_string.h **** 	  traits_type::assign(*__d, *__s);
 352:/usr/include/c++/4.4/bits/basic_string.h **** 	else
GAS LISTING /tmp/cc23nfB3.s 			page 43


 353:/usr/include/c++/4.4/bits/basic_string.h **** 	  traits_type::move(__d, __s, __n);	  
 354:/usr/include/c++/4.4/bits/basic_string.h ****       }
 355:/usr/include/c++/4.4/bits/basic_string.h **** 
 356:/usr/include/c++/4.4/bits/basic_string.h ****       static void
 357:/usr/include/c++/4.4/bits/basic_string.h ****       _M_assign(_CharT* __d, size_type __n, _CharT __c)
 358:/usr/include/c++/4.4/bits/basic_string.h ****       {
 359:/usr/include/c++/4.4/bits/basic_string.h **** 	if (__n == 1)
 360:/usr/include/c++/4.4/bits/basic_string.h **** 	  traits_type::assign(*__d, __c);
 361:/usr/include/c++/4.4/bits/basic_string.h **** 	else
 362:/usr/include/c++/4.4/bits/basic_string.h **** 	  traits_type::assign(__d, __n, __c);	  
 363:/usr/include/c++/4.4/bits/basic_string.h ****       }
 364:/usr/include/c++/4.4/bits/basic_string.h **** 
 365:/usr/include/c++/4.4/bits/basic_string.h ****       // _S_copy_chars is a separate template to permit specialization
 366:/usr/include/c++/4.4/bits/basic_string.h ****       // to optimize for the common case of pointers as iterators.
 367:/usr/include/c++/4.4/bits/basic_string.h ****       template<class _Iterator>
 368:/usr/include/c++/4.4/bits/basic_string.h ****         static void
 369:/usr/include/c++/4.4/bits/basic_string.h ****         _S_copy_chars(_CharT* __p, _Iterator __k1, _Iterator __k2)
 370:/usr/include/c++/4.4/bits/basic_string.h ****         {
 371:/usr/include/c++/4.4/bits/basic_string.h **** 	  for (; __k1 != __k2; ++__k1, ++__p)
 372:/usr/include/c++/4.4/bits/basic_string.h **** 	    traits_type::assign(*__p, *__k1); // These types are off.
 373:/usr/include/c++/4.4/bits/basic_string.h **** 	}
 374:/usr/include/c++/4.4/bits/basic_string.h **** 
 375:/usr/include/c++/4.4/bits/basic_string.h ****       static void
 376:/usr/include/c++/4.4/bits/basic_string.h ****       _S_copy_chars(_CharT* __p, iterator __k1, iterator __k2)
 377:/usr/include/c++/4.4/bits/basic_string.h ****       { _S_copy_chars(__p, __k1.base(), __k2.base()); }
 378:/usr/include/c++/4.4/bits/basic_string.h **** 
 379:/usr/include/c++/4.4/bits/basic_string.h ****       static void
 380:/usr/include/c++/4.4/bits/basic_string.h ****       _S_copy_chars(_CharT* __p, const_iterator __k1, const_iterator __k2)
 381:/usr/include/c++/4.4/bits/basic_string.h ****       { _S_copy_chars(__p, __k1.base(), __k2.base()); }
 382:/usr/include/c++/4.4/bits/basic_string.h **** 
 383:/usr/include/c++/4.4/bits/basic_string.h ****       static void
 384:/usr/include/c++/4.4/bits/basic_string.h ****       _S_copy_chars(_CharT* __p, _CharT* __k1, _CharT* __k2)
 385:/usr/include/c++/4.4/bits/basic_string.h ****       { _M_copy(__p, __k1, __k2 - __k1); }
 386:/usr/include/c++/4.4/bits/basic_string.h **** 
 387:/usr/include/c++/4.4/bits/basic_string.h ****       static void
 388:/usr/include/c++/4.4/bits/basic_string.h ****       _S_copy_chars(_CharT* __p, const _CharT* __k1, const _CharT* __k2)
 389:/usr/include/c++/4.4/bits/basic_string.h ****       { _M_copy(__p, __k1, __k2 - __k1); }
 390:/usr/include/c++/4.4/bits/basic_string.h **** 
 391:/usr/include/c++/4.4/bits/basic_string.h ****       static int
 392:/usr/include/c++/4.4/bits/basic_string.h ****       _S_compare(size_type __n1, size_type __n2)
 393:/usr/include/c++/4.4/bits/basic_string.h ****       {
 394:/usr/include/c++/4.4/bits/basic_string.h **** 	const difference_type __d = difference_type(__n1 - __n2);
 395:/usr/include/c++/4.4/bits/basic_string.h **** 
 396:/usr/include/c++/4.4/bits/basic_string.h **** 	if (__d > __gnu_cxx::__numeric_traits<int>::__max)
 397:/usr/include/c++/4.4/bits/basic_string.h **** 	  return __gnu_cxx::__numeric_traits<int>::__max;
 398:/usr/include/c++/4.4/bits/basic_string.h **** 	else if (__d < __gnu_cxx::__numeric_traits<int>::__min)
 399:/usr/include/c++/4.4/bits/basic_string.h **** 	  return __gnu_cxx::__numeric_traits<int>::__min;
 400:/usr/include/c++/4.4/bits/basic_string.h **** 	else
 401:/usr/include/c++/4.4/bits/basic_string.h **** 	  return int(__d);
 402:/usr/include/c++/4.4/bits/basic_string.h ****       }
 403:/usr/include/c++/4.4/bits/basic_string.h **** 
 404:/usr/include/c++/4.4/bits/basic_string.h ****       void
 405:/usr/include/c++/4.4/bits/basic_string.h ****       _M_mutate(size_type __pos, size_type __len1, size_type __len2);
 406:/usr/include/c++/4.4/bits/basic_string.h **** 
 407:/usr/include/c++/4.4/bits/basic_string.h ****       void
 408:/usr/include/c++/4.4/bits/basic_string.h ****       _M_leak_hard();
 409:/usr/include/c++/4.4/bits/basic_string.h **** 
GAS LISTING /tmp/cc23nfB3.s 			page 44


 410:/usr/include/c++/4.4/bits/basic_string.h ****       static _Rep&
 411:/usr/include/c++/4.4/bits/basic_string.h ****       _S_empty_rep()
 412:/usr/include/c++/4.4/bits/basic_string.h ****       { return _Rep::_S_empty_rep(); }
 413:/usr/include/c++/4.4/bits/basic_string.h **** 
 414:/usr/include/c++/4.4/bits/basic_string.h ****     public:
 415:/usr/include/c++/4.4/bits/basic_string.h ****       // Construct/copy/destroy:
 416:/usr/include/c++/4.4/bits/basic_string.h ****       // NB: We overload ctors in some cases instead of using default
 417:/usr/include/c++/4.4/bits/basic_string.h ****       // arguments, per 17.4.4.4 para. 2 item 2.
 418:/usr/include/c++/4.4/bits/basic_string.h **** 
 419:/usr/include/c++/4.4/bits/basic_string.h ****       /**
 420:/usr/include/c++/4.4/bits/basic_string.h ****        *  @brief  Default constructor creates an empty string.
 421:/usr/include/c++/4.4/bits/basic_string.h ****        */
 422:/usr/include/c++/4.4/bits/basic_string.h ****       inline
 423:/usr/include/c++/4.4/bits/basic_string.h ****       basic_string();
 424:/usr/include/c++/4.4/bits/basic_string.h **** 
 425:/usr/include/c++/4.4/bits/basic_string.h ****       /**
 426:/usr/include/c++/4.4/bits/basic_string.h ****        *  @brief  Construct an empty string using allocator @a a.
 427:/usr/include/c++/4.4/bits/basic_string.h ****        */
 428:/usr/include/c++/4.4/bits/basic_string.h ****       explicit
 429:/usr/include/c++/4.4/bits/basic_string.h ****       basic_string(const _Alloc& __a);
 430:/usr/include/c++/4.4/bits/basic_string.h **** 
 431:/usr/include/c++/4.4/bits/basic_string.h ****       // NB: per LWG issue 42, semantics different from IS:
 432:/usr/include/c++/4.4/bits/basic_string.h ****       /**
 433:/usr/include/c++/4.4/bits/basic_string.h ****        *  @brief  Construct string with copy of value of @a str.
 434:/usr/include/c++/4.4/bits/basic_string.h ****        *  @param  str  Source string.
 435:/usr/include/c++/4.4/bits/basic_string.h ****        */
 436:/usr/include/c++/4.4/bits/basic_string.h ****       basic_string(const basic_string& __str);
 437:/usr/include/c++/4.4/bits/basic_string.h ****       /**
 438:/usr/include/c++/4.4/bits/basic_string.h ****        *  @brief  Construct string as copy of a substring.
 439:/usr/include/c++/4.4/bits/basic_string.h ****        *  @param  str  Source string.
 440:/usr/include/c++/4.4/bits/basic_string.h ****        *  @param  pos  Index of first character to copy from.
 441:/usr/include/c++/4.4/bits/basic_string.h ****        *  @param  n  Number of characters to copy (default remainder).
 442:/usr/include/c++/4.4/bits/basic_string.h ****        */
 443:/usr/include/c++/4.4/bits/basic_string.h ****       basic_string(const basic_string& __str, size_type __pos,
 444:/usr/include/c++/4.4/bits/basic_string.h **** 		   size_type __n = npos);
 445:/usr/include/c++/4.4/bits/basic_string.h ****       /**
 446:/usr/include/c++/4.4/bits/basic_string.h ****        *  @brief  Construct string as copy of a substring.
 447:/usr/include/c++/4.4/bits/basic_string.h ****        *  @param  str  Source string.
 448:/usr/include/c++/4.4/bits/basic_string.h ****        *  @param  pos  Index of first character to copy from.
 449:/usr/include/c++/4.4/bits/basic_string.h ****        *  @param  n  Number of characters to copy.
 450:/usr/include/c++/4.4/bits/basic_string.h ****        *  @param  a  Allocator to use.
 451:/usr/include/c++/4.4/bits/basic_string.h ****        */
 452:/usr/include/c++/4.4/bits/basic_string.h ****       basic_string(const basic_string& __str, size_type __pos,
 453:/usr/include/c++/4.4/bits/basic_string.h **** 		   size_type __n, const _Alloc& __a);
 454:/usr/include/c++/4.4/bits/basic_string.h **** 
 455:/usr/include/c++/4.4/bits/basic_string.h ****       /**
 456:/usr/include/c++/4.4/bits/basic_string.h ****        *  @brief  Construct string initialized by a character array.
 457:/usr/include/c++/4.4/bits/basic_string.h ****        *  @param  s  Source character array.
 458:/usr/include/c++/4.4/bits/basic_string.h ****        *  @param  n  Number of characters to copy.
 459:/usr/include/c++/4.4/bits/basic_string.h ****        *  @param  a  Allocator to use (default is default allocator).
 460:/usr/include/c++/4.4/bits/basic_string.h ****        *
 461:/usr/include/c++/4.4/bits/basic_string.h ****        *  NB: @a s must have at least @a n characters, '\\0' has no special
 462:/usr/include/c++/4.4/bits/basic_string.h ****        *  meaning.
 463:/usr/include/c++/4.4/bits/basic_string.h ****        */
 464:/usr/include/c++/4.4/bits/basic_string.h ****       basic_string(const _CharT* __s, size_type __n,
 465:/usr/include/c++/4.4/bits/basic_string.h **** 		   const _Alloc& __a = _Alloc());
 466:/usr/include/c++/4.4/bits/basic_string.h ****       /**
GAS LISTING /tmp/cc23nfB3.s 			page 45


 467:/usr/include/c++/4.4/bits/basic_string.h ****        *  @brief  Construct string as copy of a C string.
 468:/usr/include/c++/4.4/bits/basic_string.h ****        *  @param  s  Source C string.
 469:/usr/include/c++/4.4/bits/basic_string.h ****        *  @param  a  Allocator to use (default is default allocator).
 470:/usr/include/c++/4.4/bits/basic_string.h ****        */
 471:/usr/include/c++/4.4/bits/basic_string.h ****       basic_string(const _CharT* __s, const _Alloc& __a = _Alloc());
 472:/usr/include/c++/4.4/bits/basic_string.h ****       /**
 473:/usr/include/c++/4.4/bits/basic_string.h ****        *  @brief  Construct string as multiple characters.
 474:/usr/include/c++/4.4/bits/basic_string.h ****        *  @param  n  Number of characters.
 475:/usr/include/c++/4.4/bits/basic_string.h ****        *  @param  c  Character to use.
 476:/usr/include/c++/4.4/bits/basic_string.h ****        *  @param  a  Allocator to use (default is default allocator).
 477:/usr/include/c++/4.4/bits/basic_string.h ****        */
 478:/usr/include/c++/4.4/bits/basic_string.h ****       basic_string(size_type __n, _CharT __c, const _Alloc& __a = _Alloc());
 479:/usr/include/c++/4.4/bits/basic_string.h **** 
 480:/usr/include/c++/4.4/bits/basic_string.h **** #ifdef __GXX_EXPERIMENTAL_CXX0X__
 481:/usr/include/c++/4.4/bits/basic_string.h ****       /**
 482:/usr/include/c++/4.4/bits/basic_string.h ****        *  @brief  Construct string from an initializer list.
 483:/usr/include/c++/4.4/bits/basic_string.h ****        *  @param  l  std::initializer_list of characters.
 484:/usr/include/c++/4.4/bits/basic_string.h ****        *  @param  a  Allocator to use (default is default allocator).
 485:/usr/include/c++/4.4/bits/basic_string.h ****        */
 486:/usr/include/c++/4.4/bits/basic_string.h ****       basic_string(initializer_list<_CharT> __l, const _Alloc& __a = _Alloc());
 487:/usr/include/c++/4.4/bits/basic_string.h **** #endif // __GXX_EXPERIMENTAL_CXX0X__
 488:/usr/include/c++/4.4/bits/basic_string.h **** 
 489:/usr/include/c++/4.4/bits/basic_string.h ****       /**
 490:/usr/include/c++/4.4/bits/basic_string.h ****        *  @brief  Construct string as copy of a range.
 491:/usr/include/c++/4.4/bits/basic_string.h ****        *  @param  beg  Start of range.
 492:/usr/include/c++/4.4/bits/basic_string.h ****        *  @param  end  End of range.
 493:/usr/include/c++/4.4/bits/basic_string.h ****        *  @param  a  Allocator to use (default is default allocator).
 494:/usr/include/c++/4.4/bits/basic_string.h ****        */
 495:/usr/include/c++/4.4/bits/basic_string.h ****       template<class _InputIterator>
 496:/usr/include/c++/4.4/bits/basic_string.h ****         basic_string(_InputIterator __beg, _InputIterator __end,
 497:/usr/include/c++/4.4/bits/basic_string.h **** 		     const _Alloc& __a = _Alloc());
 498:/usr/include/c++/4.4/bits/basic_string.h **** 
 499:/usr/include/c++/4.4/bits/basic_string.h ****       /**
 500:/usr/include/c++/4.4/bits/basic_string.h ****        *  @brief  Destroy the string instance.
 501:/usr/include/c++/4.4/bits/basic_string.h ****        */
 502:/usr/include/c++/4.4/bits/basic_string.h ****       ~basic_string()
 353              		.loc 8 502 0
 354              		.cfi_startproc
 355              		.cfi_personality 0x0,__gxx_personality_v0
 356              	.LVL13:
 357 0000 55       		pushl	%ebp
 358              	.LCFI14:
 359              		.cfi_def_cfa_offset 8
 360 0001 89E5     		movl	%esp, %ebp
 361              		.cfi_offset 5, -8
 362              	.LCFI15:
 363              		.cfi_def_cfa_register 5
 364 0003 83EC08   		subl	$8, %esp
 365              	.LBB360:
 366              	.LBB361:
 286:/usr/include/c++/4.4/bits/basic_string.h ****       { return &((reinterpret_cast<_Rep*> (_M_data()))[-1]); }
 367              		.loc 8 286 0
 368 0006 8B4508   		movl	8(%ebp), %eax
 369 0009 8B00     		movl	(%eax), %eax
 370 000b 83E80C   		subl	$12, %eax
 371              	.LBE361:
 372              	.LBE360:
GAS LISTING /tmp/cc23nfB3.s 			page 46


 373              	.LBB362:
 374              	.LBB363:
 232:/usr/include/c++/4.4/bits/basic_string.h **** 	  if (__builtin_expect(this != &_S_empty_rep(), false))
 375              		.loc 8 232 0
 376 000e 3D000000 		cmpl	$_ZNSbIhSt11char_traitsIhESaIhEE4_Rep20_S_empty_rep_storageE, %eax
 376      00
 377 0013 7429     		je	.L25
 378              	.LVL14:
 379              	.LBB371:
 380              	.LBB372:
 381              		.file 9 "/usr/include/c++/4.4/ext/atomicity.h"
   1:/usr/include/c++/4.4/ext/atomicity.h **** // Support for atomic operations -*- C++ -*-
   2:/usr/include/c++/4.4/ext/atomicity.h **** 
   3:/usr/include/c++/4.4/ext/atomicity.h **** // Copyright (C) 2004, 2005, 2006, 2008, 2009 Free Software Foundation, Inc.
   4:/usr/include/c++/4.4/ext/atomicity.h **** //
   5:/usr/include/c++/4.4/ext/atomicity.h **** // This file is part of the GNU ISO C++ Library.  This library is free
   6:/usr/include/c++/4.4/ext/atomicity.h **** // software; you can redistribute it and/or modify it under the
   7:/usr/include/c++/4.4/ext/atomicity.h **** // terms of the GNU General Public License as published by the
   8:/usr/include/c++/4.4/ext/atomicity.h **** // Free Software Foundation; either version 3, or (at your option)
   9:/usr/include/c++/4.4/ext/atomicity.h **** // any later version.
  10:/usr/include/c++/4.4/ext/atomicity.h **** 
  11:/usr/include/c++/4.4/ext/atomicity.h **** // This library is distributed in the hope that it will be useful,
  12:/usr/include/c++/4.4/ext/atomicity.h **** // but WITHOUT ANY WARRANTY; without even the implied warranty of
  13:/usr/include/c++/4.4/ext/atomicity.h **** // MERCHANTABILITY or FITNESS FOR A PARTICULAR PURPOSE.  See the
  14:/usr/include/c++/4.4/ext/atomicity.h **** // GNU General Public License for more details.
  15:/usr/include/c++/4.4/ext/atomicity.h **** 
  16:/usr/include/c++/4.4/ext/atomicity.h **** // Under Section 7 of GPL version 3, you are granted additional
  17:/usr/include/c++/4.4/ext/atomicity.h **** // permissions described in the GCC Runtime Library Exception, version
  18:/usr/include/c++/4.4/ext/atomicity.h **** // 3.1, as published by the Free Software Foundation.
  19:/usr/include/c++/4.4/ext/atomicity.h **** 
  20:/usr/include/c++/4.4/ext/atomicity.h **** // You should have received a copy of the GNU General Public License and
  21:/usr/include/c++/4.4/ext/atomicity.h **** // a copy of the GCC Runtime Library Exception along with this program;
  22:/usr/include/c++/4.4/ext/atomicity.h **** // see the files COPYING3 and COPYING.RUNTIME respectively.  If not, see
  23:/usr/include/c++/4.4/ext/atomicity.h **** // <http://www.gnu.org/licenses/>.
  24:/usr/include/c++/4.4/ext/atomicity.h **** 
  25:/usr/include/c++/4.4/ext/atomicity.h **** /** @file atomicity.h
  26:/usr/include/c++/4.4/ext/atomicity.h ****  *  This is an internal header file, included by other library headers.
  27:/usr/include/c++/4.4/ext/atomicity.h ****  *  You should not attempt to use it directly.
  28:/usr/include/c++/4.4/ext/atomicity.h ****  */
  29:/usr/include/c++/4.4/ext/atomicity.h **** 
  30:/usr/include/c++/4.4/ext/atomicity.h **** #ifndef _GLIBCXX_ATOMICITY_H
  31:/usr/include/c++/4.4/ext/atomicity.h **** #define _GLIBCXX_ATOMICITY_H	1
  32:/usr/include/c++/4.4/ext/atomicity.h **** 
  33:/usr/include/c++/4.4/ext/atomicity.h **** #include <bits/c++config.h>
  34:/usr/include/c++/4.4/ext/atomicity.h **** #include <bits/gthr.h>
  35:/usr/include/c++/4.4/ext/atomicity.h **** #include <bits/atomic_word.h>
  36:/usr/include/c++/4.4/ext/atomicity.h **** 
  37:/usr/include/c++/4.4/ext/atomicity.h **** _GLIBCXX_BEGIN_NAMESPACE(__gnu_cxx)
  38:/usr/include/c++/4.4/ext/atomicity.h **** 
  39:/usr/include/c++/4.4/ext/atomicity.h ****   // Functions for portable atomic access.
  40:/usr/include/c++/4.4/ext/atomicity.h ****   // To abstract locking primitives across all thread policies, use:
  41:/usr/include/c++/4.4/ext/atomicity.h ****   // __exchange_and_add_dispatch
  42:/usr/include/c++/4.4/ext/atomicity.h ****   // __atomic_add_dispatch
  43:/usr/include/c++/4.4/ext/atomicity.h **** #ifdef _GLIBCXX_ATOMIC_BUILTINS_4
  44:/usr/include/c++/4.4/ext/atomicity.h ****   static inline _Atomic_word 
  45:/usr/include/c++/4.4/ext/atomicity.h ****   __exchange_and_add(volatile _Atomic_word* __mem, int __val)
  46:/usr/include/c++/4.4/ext/atomicity.h ****   { return __sync_fetch_and_add(__mem, __val); }
GAS LISTING /tmp/cc23nfB3.s 			page 47


  47:/usr/include/c++/4.4/ext/atomicity.h **** 
  48:/usr/include/c++/4.4/ext/atomicity.h ****   static inline void
  49:/usr/include/c++/4.4/ext/atomicity.h ****   __atomic_add(volatile _Atomic_word* __mem, int __val)
  50:/usr/include/c++/4.4/ext/atomicity.h ****   { __sync_fetch_and_add(__mem, __val); }
  51:/usr/include/c++/4.4/ext/atomicity.h **** #else
  52:/usr/include/c++/4.4/ext/atomicity.h ****   _Atomic_word
  53:/usr/include/c++/4.4/ext/atomicity.h ****   __attribute__ ((__unused__))
  54:/usr/include/c++/4.4/ext/atomicity.h ****   __exchange_and_add(volatile _Atomic_word*, int);
  55:/usr/include/c++/4.4/ext/atomicity.h **** 
  56:/usr/include/c++/4.4/ext/atomicity.h ****   void
  57:/usr/include/c++/4.4/ext/atomicity.h ****   __attribute__ ((__unused__))
  58:/usr/include/c++/4.4/ext/atomicity.h ****   __atomic_add(volatile _Atomic_word*, int);
  59:/usr/include/c++/4.4/ext/atomicity.h **** #endif
  60:/usr/include/c++/4.4/ext/atomicity.h **** 
  61:/usr/include/c++/4.4/ext/atomicity.h ****   static inline _Atomic_word
  62:/usr/include/c++/4.4/ext/atomicity.h ****   __exchange_and_add_single(_Atomic_word* __mem, int __val)
  63:/usr/include/c++/4.4/ext/atomicity.h ****   {
  64:/usr/include/c++/4.4/ext/atomicity.h ****     _Atomic_word __result = *__mem;
  65:/usr/include/c++/4.4/ext/atomicity.h ****     *__mem += __val;
  66:/usr/include/c++/4.4/ext/atomicity.h ****     return __result;
  67:/usr/include/c++/4.4/ext/atomicity.h ****   }
  68:/usr/include/c++/4.4/ext/atomicity.h **** 
  69:/usr/include/c++/4.4/ext/atomicity.h ****   static inline void
  70:/usr/include/c++/4.4/ext/atomicity.h ****   __atomic_add_single(_Atomic_word* __mem, int __val)
  71:/usr/include/c++/4.4/ext/atomicity.h ****   { *__mem += __val; }
  72:/usr/include/c++/4.4/ext/atomicity.h **** 
  73:/usr/include/c++/4.4/ext/atomicity.h ****   static inline _Atomic_word
  74:/usr/include/c++/4.4/ext/atomicity.h ****   __attribute__ ((__unused__))
  75:/usr/include/c++/4.4/ext/atomicity.h ****   __exchange_and_add_dispatch(_Atomic_word* __mem, int __val)
  76:/usr/include/c++/4.4/ext/atomicity.h ****   {
  77:/usr/include/c++/4.4/ext/atomicity.h **** #ifdef __GTHREADS
  78:/usr/include/c++/4.4/ext/atomicity.h ****     if (__gthread_active_p())
 382              		.loc 9 78 0
 383 0015 BA000000 		movl	$_ZL22__gthrw_pthread_cancelm, %edx
 383      00
 384 001a 85D2     		testl	%edx, %edx
 385 001c 740A     		je	.L23
 386              	.LBB373:
 387              	.LBB374:
  46:/usr/include/c++/4.4/ext/atomicity.h ****   { return __sync_fetch_and_add(__mem, __val); }
 388              		.loc 9 46 0
 389 001e 83CAFF   		orl	$-1, %edx
 390 0021 F00FC150 		lock xaddl	%edx, 8(%eax)
 390      08
 391 0026 EB09     		jmp	.L24
 392              	.L23:
 393              	.LBE374:
 394              	.LBE373:
 395              	.LBB375:
 396              	.LBB376:
  64:/usr/include/c++/4.4/ext/atomicity.h ****     _Atomic_word __result = *__mem;
 397              		.loc 9 64 0
 398 0028 8B5008   		movl	8(%eax), %edx
 399              	.LVL15:
  65:/usr/include/c++/4.4/ext/atomicity.h ****     *__mem += __val;
 400              		.loc 9 65 0
 401 002b 8D4AFF   		leal	-1(%edx), %ecx
GAS LISTING /tmp/cc23nfB3.s 			page 48


 402 002e 894808   		movl	%ecx, 8(%eax)
 403              	.L24:
 404              	.LBE376:
 405              	.LBE375:
 406              	.LBE372:
 407              	.LBE371:
 234:/usr/include/c++/4.4/bits/basic_string.h **** 	    if (__gnu_cxx::__exchange_and_add_dispatch(&this->_M_refcount,
 408              		.loc 8 234 0
 409 0031 85D2     		testl	%edx, %edx
 410 0033 7F09     		jg	.L25
 411              	.LBB364:
 412              	.LBB365:
 413              	.LBB366:
 414              	.LBB367:
 415              		.file 10 "/usr/include/c++/4.4/ext/new_allocator.h"
   1:/usr/include/c++/4.4/ext/new_allocator.h **** // Allocator that wraps operator new -*- C++ -*-
   2:/usr/include/c++/4.4/ext/new_allocator.h **** 
   3:/usr/include/c++/4.4/ext/new_allocator.h **** // Copyright (C) 2001, 2002, 2003, 2004, 2005, 2009
   4:/usr/include/c++/4.4/ext/new_allocator.h **** // Free Software Foundation, Inc.
   5:/usr/include/c++/4.4/ext/new_allocator.h **** //
   6:/usr/include/c++/4.4/ext/new_allocator.h **** // This file is part of the GNU ISO C++ Library.  This library is free
   7:/usr/include/c++/4.4/ext/new_allocator.h **** // software; you can redistribute it and/or modify it under the
   8:/usr/include/c++/4.4/ext/new_allocator.h **** // terms of the GNU General Public License as published by the
   9:/usr/include/c++/4.4/ext/new_allocator.h **** // Free Software Foundation; either version 3, or (at your option)
  10:/usr/include/c++/4.4/ext/new_allocator.h **** // any later version.
  11:/usr/include/c++/4.4/ext/new_allocator.h **** 
  12:/usr/include/c++/4.4/ext/new_allocator.h **** // This library is distributed in the hope that it will be useful,
  13:/usr/include/c++/4.4/ext/new_allocator.h **** // but WITHOUT ANY WARRANTY; without even the implied warranty of
  14:/usr/include/c++/4.4/ext/new_allocator.h **** // MERCHANTABILITY or FITNESS FOR A PARTICULAR PURPOSE.  See the
  15:/usr/include/c++/4.4/ext/new_allocator.h **** // GNU General Public License for more details.
  16:/usr/include/c++/4.4/ext/new_allocator.h **** 
  17:/usr/include/c++/4.4/ext/new_allocator.h **** // Under Section 7 of GPL version 3, you are granted additional
  18:/usr/include/c++/4.4/ext/new_allocator.h **** // permissions described in the GCC Runtime Library Exception, version
  19:/usr/include/c++/4.4/ext/new_allocator.h **** // 3.1, as published by the Free Software Foundation.
  20:/usr/include/c++/4.4/ext/new_allocator.h **** 
  21:/usr/include/c++/4.4/ext/new_allocator.h **** // You should have received a copy of the GNU General Public License and
  22:/usr/include/c++/4.4/ext/new_allocator.h **** // a copy of the GCC Runtime Library Exception along with this program;
  23:/usr/include/c++/4.4/ext/new_allocator.h **** // see the files COPYING3 and COPYING.RUNTIME respectively.  If not, see
  24:/usr/include/c++/4.4/ext/new_allocator.h **** // <http://www.gnu.org/licenses/>.
  25:/usr/include/c++/4.4/ext/new_allocator.h **** 
  26:/usr/include/c++/4.4/ext/new_allocator.h **** /** @file ext/new_allocator.h
  27:/usr/include/c++/4.4/ext/new_allocator.h ****  *  This file is a GNU extension to the Standard C++ Library.
  28:/usr/include/c++/4.4/ext/new_allocator.h ****  */
  29:/usr/include/c++/4.4/ext/new_allocator.h **** 
  30:/usr/include/c++/4.4/ext/new_allocator.h **** #ifndef _NEW_ALLOCATOR_H
  31:/usr/include/c++/4.4/ext/new_allocator.h **** #define _NEW_ALLOCATOR_H 1
  32:/usr/include/c++/4.4/ext/new_allocator.h **** 
  33:/usr/include/c++/4.4/ext/new_allocator.h **** #include <new>
  34:/usr/include/c++/4.4/ext/new_allocator.h **** #include <bits/functexcept.h>
  35:/usr/include/c++/4.4/ext/new_allocator.h **** #include <bits/move.h>
  36:/usr/include/c++/4.4/ext/new_allocator.h **** 
  37:/usr/include/c++/4.4/ext/new_allocator.h **** _GLIBCXX_BEGIN_NAMESPACE(__gnu_cxx)
  38:/usr/include/c++/4.4/ext/new_allocator.h **** 
  39:/usr/include/c++/4.4/ext/new_allocator.h ****   using std::size_t;
  40:/usr/include/c++/4.4/ext/new_allocator.h ****   using std::ptrdiff_t;
  41:/usr/include/c++/4.4/ext/new_allocator.h **** 
  42:/usr/include/c++/4.4/ext/new_allocator.h ****   /**
GAS LISTING /tmp/cc23nfB3.s 			page 49


  43:/usr/include/c++/4.4/ext/new_allocator.h ****    *  @brief  An allocator that uses global new, as per [20.4].
  44:/usr/include/c++/4.4/ext/new_allocator.h ****    *  @ingroup allocators
  45:/usr/include/c++/4.4/ext/new_allocator.h ****    *
  46:/usr/include/c++/4.4/ext/new_allocator.h ****    *  This is precisely the allocator defined in the C++ Standard. 
  47:/usr/include/c++/4.4/ext/new_allocator.h ****    *    - all allocation calls operator new
  48:/usr/include/c++/4.4/ext/new_allocator.h ****    *    - all deallocation calls operator delete
  49:/usr/include/c++/4.4/ext/new_allocator.h ****    */
  50:/usr/include/c++/4.4/ext/new_allocator.h ****   template<typename _Tp>
  51:/usr/include/c++/4.4/ext/new_allocator.h ****     class new_allocator
  52:/usr/include/c++/4.4/ext/new_allocator.h ****     {
  53:/usr/include/c++/4.4/ext/new_allocator.h ****     public:
  54:/usr/include/c++/4.4/ext/new_allocator.h ****       typedef size_t     size_type;
  55:/usr/include/c++/4.4/ext/new_allocator.h ****       typedef ptrdiff_t  difference_type;
  56:/usr/include/c++/4.4/ext/new_allocator.h ****       typedef _Tp*       pointer;
  57:/usr/include/c++/4.4/ext/new_allocator.h ****       typedef const _Tp* const_pointer;
  58:/usr/include/c++/4.4/ext/new_allocator.h ****       typedef _Tp&       reference;
  59:/usr/include/c++/4.4/ext/new_allocator.h ****       typedef const _Tp& const_reference;
  60:/usr/include/c++/4.4/ext/new_allocator.h ****       typedef _Tp        value_type;
  61:/usr/include/c++/4.4/ext/new_allocator.h **** 
  62:/usr/include/c++/4.4/ext/new_allocator.h ****       template<typename _Tp1>
  63:/usr/include/c++/4.4/ext/new_allocator.h ****         struct rebind
  64:/usr/include/c++/4.4/ext/new_allocator.h ****         { typedef new_allocator<_Tp1> other; };
  65:/usr/include/c++/4.4/ext/new_allocator.h **** 
  66:/usr/include/c++/4.4/ext/new_allocator.h ****       new_allocator() throw() { }
  67:/usr/include/c++/4.4/ext/new_allocator.h **** 
  68:/usr/include/c++/4.4/ext/new_allocator.h ****       new_allocator(const new_allocator&) throw() { }
  69:/usr/include/c++/4.4/ext/new_allocator.h **** 
  70:/usr/include/c++/4.4/ext/new_allocator.h ****       template<typename _Tp1>
  71:/usr/include/c++/4.4/ext/new_allocator.h ****         new_allocator(const new_allocator<_Tp1>&) throw() { }
  72:/usr/include/c++/4.4/ext/new_allocator.h **** 
  73:/usr/include/c++/4.4/ext/new_allocator.h ****       ~new_allocator() throw() { }
  74:/usr/include/c++/4.4/ext/new_allocator.h **** 
  75:/usr/include/c++/4.4/ext/new_allocator.h ****       pointer
  76:/usr/include/c++/4.4/ext/new_allocator.h ****       address(reference __x) const { return &__x; }
  77:/usr/include/c++/4.4/ext/new_allocator.h **** 
  78:/usr/include/c++/4.4/ext/new_allocator.h ****       const_pointer
  79:/usr/include/c++/4.4/ext/new_allocator.h ****       address(const_reference __x) const { return &__x; }
  80:/usr/include/c++/4.4/ext/new_allocator.h **** 
  81:/usr/include/c++/4.4/ext/new_allocator.h ****       // NB: __n is permitted to be 0.  The C++ standard says nothing
  82:/usr/include/c++/4.4/ext/new_allocator.h ****       // about what the return value is when __n == 0.
  83:/usr/include/c++/4.4/ext/new_allocator.h ****       pointer
  84:/usr/include/c++/4.4/ext/new_allocator.h ****       allocate(size_type __n, const void* = 0)
  85:/usr/include/c++/4.4/ext/new_allocator.h ****       { 
  86:/usr/include/c++/4.4/ext/new_allocator.h **** 	if (__builtin_expect(__n > this->max_size(), false))
  87:/usr/include/c++/4.4/ext/new_allocator.h **** 	  std::__throw_bad_alloc();
  88:/usr/include/c++/4.4/ext/new_allocator.h **** 
  89:/usr/include/c++/4.4/ext/new_allocator.h **** 	return static_cast<_Tp*>(::operator new(__n * sizeof(_Tp)));
  90:/usr/include/c++/4.4/ext/new_allocator.h ****       }
  91:/usr/include/c++/4.4/ext/new_allocator.h **** 
  92:/usr/include/c++/4.4/ext/new_allocator.h ****       // __p is not permitted to be a null pointer.
  93:/usr/include/c++/4.4/ext/new_allocator.h ****       void
  94:/usr/include/c++/4.4/ext/new_allocator.h ****       deallocate(pointer __p, size_type)
  95:/usr/include/c++/4.4/ext/new_allocator.h ****       { ::operator delete(__p); }
 416              		.loc 10 95 0
 417 0035 894508   		movl	%eax, 8(%ebp)
 418              	.LBE367:
 419              	.LBE366:
GAS LISTING /tmp/cc23nfB3.s 			page 50


 420              	.LBE365:
 421              	.LBE364:
 422              	.LBE363:
 423              	.LBE362:
 503:/usr/include/c++/4.4/bits/basic_string.h ****       { _M_rep()->_M_dispose(this->get_allocator()); }
 424              		.loc 8 503 0
 425 0038 C9       		leave
 426              	.LBB379:
 427              	.LBB378:
 428              	.LBB377:
 429              	.LBB370:
 430              	.LBB369:
 431              	.LBB368:
 432              		.loc 10 95 0
 433              		.cfi_escape 0x2e,0x4
 434 0039 E9FCFFFF 		jmp	_ZdlPv
 434      FF
 435              	.LVL16:
 436              	.L25:
 437              	.LBE368:
 438              	.LBE369:
 439              	.LBE370:
 440              	.LBE377:
 441              	.LBE378:
 442              	.LBE379:
 443              		.loc 8 503 0
 444 003e C9       		leave
 445 003f C3       		ret
 446              		.cfi_endproc
 447              	.LFE1323:
